                                      1 ;--------------------------------------------------------
                                      2 ; File Created by SDCC : free open source ISO C Compiler 
                                      3 ; Version 4.3.2 #14228 (Linux)
                                      4 ;--------------------------------------------------------
                                      5 	.module gb_dtmf
                                      6 	.optsdcc -msm83
                                      7 	
                                      8 ;--------------------------------------------------------
                                      9 ; Public variables in this module
                                     10 ;--------------------------------------------------------
                                     11 	.globl _main
                                     12 	.globl _move_cursor
                                     13 	.globl _init_cursor
                                     14 	.globl _init_background
                                     15 	.globl _init_key
                                     16 	.globl _break_button
                                     17 	.globl _press_button
                                     18 	.globl _disp
                                     19 	.globl _clr_disp
                                     20 	.globl _disp_lcd
                                     21 	.globl _dialtone
                                     22 	.globl _init_dial
                                     23 	.globl _strcpy
                                     24 	.globl _sprintf
                                     25 	.globl _set_sprite_data
                                     26 	.globl _set_bkg_tiles
                                     27 	.globl _set_bkg_data
                                     28 	.globl _vsync
                                     29 	.globl _joypad
                                     30 	.globl _delay
                                     31 	.globl _disp_tile
                                     32 	.globl _pad
                                     33 	.globl _init_disp
                                     34 	.globl _dialing_press
                                     35 	.globl _press_tile
                                     36 	.globl _dialing_break
                                     37 	.globl _break_tile
                                     38 	.globl _dtmf_tile
                                     39 	.globl _col
                                     40 	.globl _row
                                     41 	.globl _cursor_data
                                     42 	.globl _key_num
                                     43 	.globl _dtmf_lcd
                                     44 	.globl _press_btn
                                     45 	.globl _break_btn
                                     46 	.globl _frame_lcd
                                     47 ;--------------------------------------------------------
                                     48 ; special function registers
                                     49 ;--------------------------------------------------------
                                     50 ;--------------------------------------------------------
                                     51 ; ram data
                                     52 ;--------------------------------------------------------
                                     53 	.area _DATA
      000000                         54 _disp_tile::
      000000                         55 	.ds 60
                                     56 ;--------------------------------------------------------
                                     57 ; ram data
                                     58 ;--------------------------------------------------------
                                     59 	.area _INITIALIZED
                                     60 ;--------------------------------------------------------
                                     61 ; absolute external ram data
                                     62 ;--------------------------------------------------------
                                     63 	.area _DABS (ABS)
                                     64 ;--------------------------------------------------------
                                     65 ; global & static initialisations
                                     66 ;--------------------------------------------------------
                                     67 	.area _HOME
                                     68 	.area _GSINIT
                                     69 	.area _GSFINAL
                                     70 	.area _GSINIT
                                     71 ;--------------------------------------------------------
                                     72 ; Home
                                     73 ;--------------------------------------------------------
                                     74 	.area _HOME
                                     75 	.area _HOME
                                     76 ;--------------------------------------------------------
                                     77 ; code
                                     78 ;--------------------------------------------------------
                                     79 	.area _CODE
                                     80 ;gb-dtmf.c:170: void init_dial(void)
                                     81 ;	---------------------------------
                                     82 ; Function init_dial
                                     83 ; ---------------------------------
      000000                         84 _init_dial::
                                     85 ;gb-dtmf.c:173: NR52_REG = 0x83U;
      000000 3E 83            [ 8]   86 	ld	a, #0x83
      000002 E0r00            [12]   87 	ldh	(_NR52_REG + 0), a
                                     88 ;gb-dtmf.c:174: NR51_REG = 0x00U;
      000004 AF               [ 4]   89 	xor	a, a
      000005 E0r00            [12]   90 	ldh	(_NR51_REG + 0), a
                                     91 ;gb-dtmf.c:175: NR50_REG = 0x77U;
      000007 3E 77            [ 8]   92 	ld	a, #0x77
      000009 E0r00            [12]   93 	ldh	(_NR50_REG + 0), a
                                     94 ;gb-dtmf.c:177: NR24_REG = 0x87U;
      00000B 3E 87            [ 8]   95 	ld	a, #0x87
      00000D E0r00            [12]   96 	ldh	(_NR24_REG + 0), a
                                     97 ;gb-dtmf.c:178: NR22_REG = 0xffU;
      00000F 3E FF            [ 8]   98 	ld	a, #0xff
      000011 E0r00            [12]   99 	ldh	(_NR22_REG + 0), a
                                    100 ;gb-dtmf.c:179: NR21_REG = 0xbfU;
      000013 3E BF            [ 8]  101 	ld	a, #0xbf
      000015 E0r00            [12]  102 	ldh	(_NR21_REG + 0), a
                                    103 ;gb-dtmf.c:181: NR14_REG = 0x87U;
      000017 3E 87            [ 8]  104 	ld	a, #0x87
      000019 E0r00            [12]  105 	ldh	(_NR14_REG + 0), a
                                    106 ;gb-dtmf.c:182: NR12_REG = 0xffU;
      00001B 3E FF            [ 8]  107 	ld	a, #0xff
      00001D E0r00            [12]  108 	ldh	(_NR12_REG + 0), a
                                    109 ;gb-dtmf.c:183: NR11_REG = 0xbfU;
      00001F 3E BF            [ 8]  110 	ld	a, #0xbf
      000021 E0r00            [12]  111 	ldh	(_NR11_REG + 0), a
                                    112 ;gb-dtmf.c:184: NR10_REG = 0x04U;
      000023 3E 04            [ 8]  113 	ld	a, #0x04
      000025 E0r00            [12]  114 	ldh	(_NR10_REG + 0), a
                                    115 ;gb-dtmf.c:185: }
      000027 C9               [16]  116 	ret
      000028                        117 _frame_lcd:
      000028 00                     118 	.db #0x00	; 0
      000029 00                     119 	.db #0x00	; 0
      00002A 00                     120 	.db #0x00	; 0
      00002B 00                     121 	.db #0x00	; 0
      00002C 00                     122 	.db #0x00	; 0
      00002D 00                     123 	.db #0x00	; 0
      00002E 00                     124 	.db #0x00	; 0
      00002F 1F                     125 	.db #0x1f	; 31
      000030 00                     126 	.db #0x00	; 0
      000031 1F                     127 	.db #0x1f	; 31
      000032 00                     128 	.db #0x00	; 0
      000033 18                     129 	.db #0x18	; 24
      000034 00                     130 	.db #0x00	; 0
      000035 18                     131 	.db #0x18	; 24
      000036 00                     132 	.db #0x00	; 0
      000037 18                     133 	.db #0x18	; 24
      000038 00                     134 	.db #0x00	; 0
      000039 00                     135 	.db #0x00	; 0
      00003A 00                     136 	.db #0x00	; 0
      00003B 00                     137 	.db #0x00	; 0
      00003C 00                     138 	.db #0x00	; 0
      00003D 00                     139 	.db #0x00	; 0
      00003E 00                     140 	.db #0x00	; 0
      00003F FF                     141 	.db #0xff	; 255
      000040 00                     142 	.db #0x00	; 0
      000041 FF                     143 	.db #0xff	; 255
      000042 00                     144 	.db #0x00	; 0
      000043 00                     145 	.db #0x00	; 0
      000044 00                     146 	.db #0x00	; 0
      000045 00                     147 	.db #0x00	; 0
      000046 00                     148 	.db #0x00	; 0
      000047 00                     149 	.db #0x00	; 0
      000048 00                     150 	.db #0x00	; 0
      000049 00                     151 	.db #0x00	; 0
      00004A 00                     152 	.db #0x00	; 0
      00004B 00                     153 	.db #0x00	; 0
      00004C 00                     154 	.db #0x00	; 0
      00004D 00                     155 	.db #0x00	; 0
      00004E 00                     156 	.db #0x00	; 0
      00004F F8                     157 	.db #0xf8	; 248
      000050 00                     158 	.db #0x00	; 0
      000051 F8                     159 	.db #0xf8	; 248
      000052 00                     160 	.db #0x00	; 0
      000053 18                     161 	.db #0x18	; 24
      000054 00                     162 	.db #0x00	; 0
      000055 18                     163 	.db #0x18	; 24
      000056 00                     164 	.db #0x00	; 0
      000057 18                     165 	.db #0x18	; 24
      000058 00                     166 	.db #0x00	; 0
      000059 18                     167 	.db #0x18	; 24
      00005A 00                     168 	.db #0x00	; 0
      00005B 18                     169 	.db #0x18	; 24
      00005C 00                     170 	.db #0x00	; 0
      00005D 18                     171 	.db #0x18	; 24
      00005E 00                     172 	.db #0x00	; 0
      00005F 18                     173 	.db #0x18	; 24
      000060 00                     174 	.db #0x00	; 0
      000061 18                     175 	.db #0x18	; 24
      000062 00                     176 	.db #0x00	; 0
      000063 18                     177 	.db #0x18	; 24
      000064 00                     178 	.db #0x00	; 0
      000065 18                     179 	.db #0x18	; 24
      000066 00                     180 	.db #0x00	; 0
      000067 18                     181 	.db #0x18	; 24
      000068 00                     182 	.db #0x00	; 0
      000069 00                     183 	.db #0x00	; 0
      00006A 00                     184 	.db #0x00	; 0
      00006B 00                     185 	.db #0x00	; 0
      00006C 00                     186 	.db #0x00	; 0
      00006D 00                     187 	.db #0x00	; 0
      00006E 00                     188 	.db #0x00	; 0
      00006F 00                     189 	.db #0x00	; 0
      000070 00                     190 	.db #0x00	; 0
      000071 00                     191 	.db #0x00	; 0
      000072 00                     192 	.db #0x00	; 0
      000073 00                     193 	.db #0x00	; 0
      000074 00                     194 	.db #0x00	; 0
      000075 00                     195 	.db #0x00	; 0
      000076 00                     196 	.db #0x00	; 0
      000077 00                     197 	.db #0x00	; 0
      000078 00                     198 	.db #0x00	; 0
      000079 18                     199 	.db #0x18	; 24
      00007A 00                     200 	.db #0x00	; 0
      00007B 18                     201 	.db #0x18	; 24
      00007C 00                     202 	.db #0x00	; 0
      00007D 18                     203 	.db #0x18	; 24
      00007E 00                     204 	.db #0x00	; 0
      00007F 18                     205 	.db #0x18	; 24
      000080 00                     206 	.db #0x00	; 0
      000081 18                     207 	.db #0x18	; 24
      000082 00                     208 	.db #0x00	; 0
      000083 18                     209 	.db #0x18	; 24
      000084 00                     210 	.db #0x00	; 0
      000085 18                     211 	.db #0x18	; 24
      000086 00                     212 	.db #0x00	; 0
      000087 18                     213 	.db #0x18	; 24
      000088 00                     214 	.db #0x00	; 0
      000089 18                     215 	.db #0x18	; 24
      00008A 00                     216 	.db #0x00	; 0
      00008B 18                     217 	.db #0x18	; 24
      00008C 00                     218 	.db #0x00	; 0
      00008D 18                     219 	.db #0x18	; 24
      00008E 00                     220 	.db #0x00	; 0
      00008F 1F                     221 	.db #0x1f	; 31
      000090 00                     222 	.db #0x00	; 0
      000091 1F                     223 	.db #0x1f	; 31
      000092 00                     224 	.db #0x00	; 0
      000093 00                     225 	.db #0x00	; 0
      000094 00                     226 	.db #0x00	; 0
      000095 00                     227 	.db #0x00	; 0
      000096 00                     228 	.db #0x00	; 0
      000097 00                     229 	.db #0x00	; 0
      000098 00                     230 	.db #0x00	; 0
      000099 00                     231 	.db #0x00	; 0
      00009A 00                     232 	.db #0x00	; 0
      00009B 00                     233 	.db #0x00	; 0
      00009C 00                     234 	.db #0x00	; 0
      00009D 00                     235 	.db #0x00	; 0
      00009E 00                     236 	.db #0x00	; 0
      00009F FF                     237 	.db #0xff	; 255
      0000A0 00                     238 	.db #0x00	; 0
      0000A1 FF                     239 	.db #0xff	; 255
      0000A2 00                     240 	.db #0x00	; 0
      0000A3 00                     241 	.db #0x00	; 0
      0000A4 00                     242 	.db #0x00	; 0
      0000A5 00                     243 	.db #0x00	; 0
      0000A6 00                     244 	.db #0x00	; 0
      0000A7 00                     245 	.db #0x00	; 0
      0000A8 00                     246 	.db #0x00	; 0
      0000A9 18                     247 	.db #0x18	; 24
      0000AA 00                     248 	.db #0x00	; 0
      0000AB 18                     249 	.db #0x18	; 24
      0000AC 00                     250 	.db #0x00	; 0
      0000AD 18                     251 	.db #0x18	; 24
      0000AE 00                     252 	.db #0x00	; 0
      0000AF F8                     253 	.db #0xf8	; 248
      0000B0 00                     254 	.db #0x00	; 0
      0000B1 F8                     255 	.db #0xf8	; 248
      0000B2 00                     256 	.db #0x00	; 0
      0000B3 00                     257 	.db #0x00	; 0
      0000B4 00                     258 	.db #0x00	; 0
      0000B5 00                     259 	.db #0x00	; 0
      0000B6 00                     260 	.db #0x00	; 0
      0000B7 00                     261 	.db #0x00	; 0
      0000B8                        262 _break_btn:
      0000B8 00                     263 	.db #0x00	; 0
      0000B9 00                     264 	.db #0x00	; 0
      0000BA 00                     265 	.db #0x00	; 0
      0000BB 00                     266 	.db #0x00	; 0
      0000BC 3F                     267 	.db #0x3f	; 63
      0000BD 00                     268 	.db #0x00	; 0
      0000BE 3F                     269 	.db #0x3f	; 63
      0000BF 00                     270 	.db #0x00	; 0
      0000C0 3F                     271 	.db #0x3f	; 63
      0000C1 00                     272 	.db #0x00	; 0
      0000C2 3F                     273 	.db #0x3f	; 63
      0000C3 00                     274 	.db #0x00	; 0
      0000C4 3F                     275 	.db #0x3f	; 63
      0000C5 00                     276 	.db #0x00	; 0
      0000C6 3F                     277 	.db #0x3f	; 63
      0000C7 00                     278 	.db #0x00	; 0
      0000C8 00                     279 	.db #0x00	; 0
      0000C9 00                     280 	.db #0x00	; 0
      0000CA 00                     281 	.db #0x00	; 0
      0000CB 00                     282 	.db #0x00	; 0
      0000CC FF                     283 	.db #0xff	; 255
      0000CD 00                     284 	.db #0x00	; 0
      0000CE FF                     285 	.db #0xff	; 255
      0000CF 00                     286 	.db #0x00	; 0
      0000D0 FF                     287 	.db #0xff	; 255
      0000D1 00                     288 	.db #0x00	; 0
      0000D2 FF                     289 	.db #0xff	; 255
      0000D3 00                     290 	.db #0x00	; 0
      0000D4 FF                     291 	.db #0xff	; 255
      0000D5 00                     292 	.db #0x00	; 0
      0000D6 FF                     293 	.db #0xff	; 255
      0000D7 00                     294 	.db #0x00	; 0
      0000D8 00                     295 	.db #0x00	; 0
      0000D9 01                     296 	.db #0x01	; 1
      0000DA 00                     297 	.db #0x00	; 0
      0000DB 03                     298 	.db #0x03	; 3
      0000DC FC                     299 	.db #0xfc	; 252
      0000DD 03                     300 	.db #0x03	; 3
      0000DE FC                     301 	.db #0xfc	; 252
      0000DF 03                     302 	.db #0x03	; 3
      0000E0 FC                     303 	.db #0xfc	; 252
      0000E1 03                     304 	.db #0x03	; 3
      0000E2 FC                     305 	.db #0xfc	; 252
      0000E3 03                     306 	.db #0x03	; 3
      0000E4 FC                     307 	.db #0xfc	; 252
      0000E5 03                     308 	.db #0x03	; 3
      0000E6 FC                     309 	.db #0xfc	; 252
      0000E7 03                     310 	.db #0x03	; 3
      0000E8 3F                     311 	.db #0x3f	; 63
      0000E9 00                     312 	.db #0x00	; 0
      0000EA 3F                     313 	.db #0x3f	; 63
      0000EB 00                     314 	.db #0x00	; 0
      0000EC 3F                     315 	.db #0x3f	; 63
      0000ED 00                     316 	.db #0x00	; 0
      0000EE 3F                     317 	.db #0x3f	; 63
      0000EF 00                     318 	.db #0x00	; 0
      0000F0 3F                     319 	.db #0x3f	; 63
      0000F1 00                     320 	.db #0x00	; 0
      0000F2 3F                     321 	.db #0x3f	; 63
      0000F3 00                     322 	.db #0x00	; 0
      0000F4 3F                     323 	.db #0x3f	; 63
      0000F5 00                     324 	.db #0x00	; 0
      0000F6 3F                     325 	.db #0x3f	; 63
      0000F7 00                     326 	.db #0x00	; 0
      0000F8 FF                     327 	.db #0xff	; 255
      0000F9 00                     328 	.db #0x00	; 0
      0000FA FF                     329 	.db #0xff	; 255
      0000FB 00                     330 	.db #0x00	; 0
      0000FC FF                     331 	.db #0xff	; 255
      0000FD 00                     332 	.db #0x00	; 0
      0000FE FF                     333 	.db #0xff	; 255
      0000FF 00                     334 	.db #0x00	; 0
      000100 FF                     335 	.db #0xff	; 255
      000101 00                     336 	.db #0x00	; 0
      000102 FF                     337 	.db #0xff	; 255
      000103 00                     338 	.db #0x00	; 0
      000104 FF                     339 	.db #0xff	; 255
      000105 00                     340 	.db #0x00	; 0
      000106 FF                     341 	.db #0xff	; 255
      000107 00                     342 	.db #0x00	; 0
      000108 FC                     343 	.db #0xfc	; 252
      000109 03                     344 	.db #0x03	; 3
      00010A FC                     345 	.db #0xfc	; 252
      00010B 03                     346 	.db #0x03	; 3
      00010C FC                     347 	.db #0xfc	; 252
      00010D 03                     348 	.db #0x03	; 3
      00010E FC                     349 	.db #0xfc	; 252
      00010F 03                     350 	.db #0x03	; 3
      000110 FC                     351 	.db #0xfc	; 252
      000111 03                     352 	.db #0x03	; 3
      000112 FC                     353 	.db #0xfc	; 252
      000113 03                     354 	.db #0x03	; 3
      000114 FC                     355 	.db #0xfc	; 252
      000115 03                     356 	.db #0x03	; 3
      000116 FC                     357 	.db #0xfc	; 252
      000117 03                     358 	.db #0x03	; 3
      000118 3F                     359 	.db #0x3f	; 63
      000119 00                     360 	.db #0x00	; 0
      00011A 3F                     361 	.db #0x3f	; 63
      00011B 00                     362 	.db #0x00	; 0
      00011C 3F                     363 	.db #0x3f	; 63
      00011D 00                     364 	.db #0x00	; 0
      00011E 3F                     365 	.db #0x3f	; 63
      00011F 00                     366 	.db #0x00	; 0
      000120 3F                     367 	.db #0x3f	; 63
      000121 00                     368 	.db #0x00	; 0
      000122 3F                     369 	.db #0x3f	; 63
      000123 00                     370 	.db #0x00	; 0
      000124 00                     371 	.db #0x00	; 0
      000125 3F                     372 	.db #0x3f	; 63
      000126 00                     373 	.db #0x00	; 0
      000127 7F                     374 	.db #0x7f	; 127
      000128 FF                     375 	.db #0xff	; 255
      000129 00                     376 	.db #0x00	; 0
      00012A FF                     377 	.db #0xff	; 255
      00012B 00                     378 	.db #0x00	; 0
      00012C FF                     379 	.db #0xff	; 255
      00012D 00                     380 	.db #0x00	; 0
      00012E FF                     381 	.db #0xff	; 255
      00012F 00                     382 	.db #0x00	; 0
      000130 FF                     383 	.db #0xff	; 255
      000131 00                     384 	.db #0x00	; 0
      000132 FF                     385 	.db #0xff	; 255
      000133 00                     386 	.db #0x00	; 0
      000134 00                     387 	.db #0x00	; 0
      000135 FF                     388 	.db #0xff	; 255
      000136 00                     389 	.db #0x00	; 0
      000137 FF                     390 	.db #0xff	; 255
      000138 FC                     391 	.db #0xfc	; 252
      000139 03                     392 	.db #0x03	; 3
      00013A FC                     393 	.db #0xfc	; 252
      00013B 03                     394 	.db #0x03	; 3
      00013C FC                     395 	.db #0xfc	; 252
      00013D 03                     396 	.db #0x03	; 3
      00013E FC                     397 	.db #0xfc	; 252
      00013F 03                     398 	.db #0x03	; 3
      000140 FC                     399 	.db #0xfc	; 252
      000141 03                     400 	.db #0x03	; 3
      000142 FC                     401 	.db #0xfc	; 252
      000143 03                     402 	.db #0x03	; 3
      000144 00                     403 	.db #0x00	; 0
      000145 FF                     404 	.db #0xff	; 255
      000146 00                     405 	.db #0x00	; 0
      000147 FF                     406 	.db #0xff	; 255
      000148                        407 _press_btn:
      000148 00                     408 	.db #0x00	; 0
      000149 FF                     409 	.db #0xff	; 255
      00014A 00                     410 	.db #0x00	; 0
      00014B FF                     411 	.db #0xff	; 255
      00014C 3F                     412 	.db #0x3f	; 63
      00014D C0                     413 	.db #0xc0	; 192
      00014E 3F                     414 	.db #0x3f	; 63
      00014F C0                     415 	.db #0xc0	; 192
      000150 3F                     416 	.db #0x3f	; 63
      000151 C0                     417 	.db #0xc0	; 192
      000152 3F                     418 	.db #0x3f	; 63
      000153 C0                     419 	.db #0xc0	; 192
      000154 3F                     420 	.db #0x3f	; 63
      000155 C0                     421 	.db #0xc0	; 192
      000156 3F                     422 	.db #0x3f	; 63
      000157 C0                     423 	.db #0xc0	; 192
      000158 00                     424 	.db #0x00	; 0
      000159 FF                     425 	.db #0xff	; 255
      00015A 00                     426 	.db #0x00	; 0
      00015B FF                     427 	.db #0xff	; 255
      00015C FF                     428 	.db #0xff	; 255
      00015D 00                     429 	.db #0x00	; 0
      00015E FF                     430 	.db #0xff	; 255
      00015F 00                     431 	.db #0x00	; 0
      000160 FF                     432 	.db #0xff	; 255
      000161 00                     433 	.db #0x00	; 0
      000162 FF                     434 	.db #0xff	; 255
      000163 00                     435 	.db #0x00	; 0
      000164 FF                     436 	.db #0xff	; 255
      000165 00                     437 	.db #0x00	; 0
      000166 FF                     438 	.db #0xff	; 255
      000167 00                     439 	.db #0x00	; 0
      000168 00                     440 	.db #0x00	; 0
      000169 FE                     441 	.db #0xfe	; 254
      00016A 00                     442 	.db #0x00	; 0
      00016B FC                     443 	.db #0xfc	; 252
      00016C FC                     444 	.db #0xfc	; 252
      00016D 00                     445 	.db #0x00	; 0
      00016E FC                     446 	.db #0xfc	; 252
      00016F 00                     447 	.db #0x00	; 0
      000170 FC                     448 	.db #0xfc	; 252
      000171 00                     449 	.db #0x00	; 0
      000172 FC                     450 	.db #0xfc	; 252
      000173 00                     451 	.db #0x00	; 0
      000174 FC                     452 	.db #0xfc	; 252
      000175 00                     453 	.db #0x00	; 0
      000176 FC                     454 	.db #0xfc	; 252
      000177 00                     455 	.db #0x00	; 0
      000178 3F                     456 	.db #0x3f	; 63
      000179 C0                     457 	.db #0xc0	; 192
      00017A 3F                     458 	.db #0x3f	; 63
      00017B C0                     459 	.db #0xc0	; 192
      00017C 3F                     460 	.db #0x3f	; 63
      00017D C0                     461 	.db #0xc0	; 192
      00017E 3F                     462 	.db #0x3f	; 63
      00017F C0                     463 	.db #0xc0	; 192
      000180 3F                     464 	.db #0x3f	; 63
      000181 C0                     465 	.db #0xc0	; 192
      000182 3F                     466 	.db #0x3f	; 63
      000183 C0                     467 	.db #0xc0	; 192
      000184 3F                     468 	.db #0x3f	; 63
      000185 C0                     469 	.db #0xc0	; 192
      000186 3F                     470 	.db #0x3f	; 63
      000187 C0                     471 	.db #0xc0	; 192
      000188 FF                     472 	.db #0xff	; 255
      000189 00                     473 	.db #0x00	; 0
      00018A FF                     474 	.db #0xff	; 255
      00018B 00                     475 	.db #0x00	; 0
      00018C FF                     476 	.db #0xff	; 255
      00018D 00                     477 	.db #0x00	; 0
      00018E FF                     478 	.db #0xff	; 255
      00018F 00                     479 	.db #0x00	; 0
      000190 FF                     480 	.db #0xff	; 255
      000191 00                     481 	.db #0x00	; 0
      000192 FF                     482 	.db #0xff	; 255
      000193 00                     483 	.db #0x00	; 0
      000194 FF                     484 	.db #0xff	; 255
      000195 00                     485 	.db #0x00	; 0
      000196 FF                     486 	.db #0xff	; 255
      000197 00                     487 	.db #0x00	; 0
      000198 FC                     488 	.db #0xfc	; 252
      000199 00                     489 	.db #0x00	; 0
      00019A FC                     490 	.db #0xfc	; 252
      00019B 00                     491 	.db #0x00	; 0
      00019C FC                     492 	.db #0xfc	; 252
      00019D 00                     493 	.db #0x00	; 0
      00019E FC                     494 	.db #0xfc	; 252
      00019F 00                     495 	.db #0x00	; 0
      0001A0 FC                     496 	.db #0xfc	; 252
      0001A1 00                     497 	.db #0x00	; 0
      0001A2 FC                     498 	.db #0xfc	; 252
      0001A3 00                     499 	.db #0x00	; 0
      0001A4 FC                     500 	.db #0xfc	; 252
      0001A5 00                     501 	.db #0x00	; 0
      0001A6 FC                     502 	.db #0xfc	; 252
      0001A7 00                     503 	.db #0x00	; 0
      0001A8 3F                     504 	.db #0x3f	; 63
      0001A9 C0                     505 	.db #0xc0	; 192
      0001AA 3F                     506 	.db #0x3f	; 63
      0001AB C0                     507 	.db #0xc0	; 192
      0001AC 3F                     508 	.db #0x3f	; 63
      0001AD C0                     509 	.db #0xc0	; 192
      0001AE 3F                     510 	.db #0x3f	; 63
      0001AF C0                     511 	.db #0xc0	; 192
      0001B0 3F                     512 	.db #0x3f	; 63
      0001B1 C0                     513 	.db #0xc0	; 192
      0001B2 3F                     514 	.db #0x3f	; 63
      0001B3 C0                     515 	.db #0xc0	; 192
      0001B4 00                     516 	.db #0x00	; 0
      0001B5 C0                     517 	.db #0xc0	; 192
      0001B6 00                     518 	.db #0x00	; 0
      0001B7 80                     519 	.db #0x80	; 128
      0001B8 FF                     520 	.db #0xff	; 255
      0001B9 00                     521 	.db #0x00	; 0
      0001BA FF                     522 	.db #0xff	; 255
      0001BB 00                     523 	.db #0x00	; 0
      0001BC FF                     524 	.db #0xff	; 255
      0001BD 00                     525 	.db #0x00	; 0
      0001BE FF                     526 	.db #0xff	; 255
      0001BF 00                     527 	.db #0x00	; 0
      0001C0 FF                     528 	.db #0xff	; 255
      0001C1 00                     529 	.db #0x00	; 0
      0001C2 FF                     530 	.db #0xff	; 255
      0001C3 00                     531 	.db #0x00	; 0
      0001C4 00                     532 	.db #0x00	; 0
      0001C5 00                     533 	.db #0x00	; 0
      0001C6 00                     534 	.db #0x00	; 0
      0001C7 00                     535 	.db #0x00	; 0
      0001C8 FC                     536 	.db #0xfc	; 252
      0001C9 00                     537 	.db #0x00	; 0
      0001CA FC                     538 	.db #0xfc	; 252
      0001CB 00                     539 	.db #0x00	; 0
      0001CC FC                     540 	.db #0xfc	; 252
      0001CD 00                     541 	.db #0x00	; 0
      0001CE FC                     542 	.db #0xfc	; 252
      0001CF 00                     543 	.db #0x00	; 0
      0001D0 FC                     544 	.db #0xfc	; 252
      0001D1 00                     545 	.db #0x00	; 0
      0001D2 FC                     546 	.db #0xfc	; 252
      0001D3 00                     547 	.db #0x00	; 0
      0001D4 00                     548 	.db #0x00	; 0
      0001D5 00                     549 	.db #0x00	; 0
      0001D6 00                     550 	.db #0x00	; 0
      0001D7 00                     551 	.db #0x00	; 0
      0001D8                        552 _dtmf_lcd:
      0001D8 3E                     553 	.db #0x3e	; 62
      0001D9 3E                     554 	.db #0x3e	; 62
      0001DA 7F                     555 	.db #0x7f	; 127
      0001DB 7F                     556 	.db #0x7f	; 127
      0001DC 63                     557 	.db #0x63	; 99	'c'
      0001DD 63                     558 	.db #0x63	; 99	'c'
      0001DE 63                     559 	.db #0x63	; 99	'c'
      0001DF 63                     560 	.db #0x63	; 99	'c'
      0001E0 63                     561 	.db #0x63	; 99	'c'
      0001E1 63                     562 	.db #0x63	; 99	'c'
      0001E2 63                     563 	.db #0x63	; 99	'c'
      0001E3 63                     564 	.db #0x63	; 99	'c'
      0001E4 63                     565 	.db #0x63	; 99	'c'
      0001E5 63                     566 	.db #0x63	; 99	'c'
      0001E6 00                     567 	.db #0x00	; 0
      0001E7 00                     568 	.db #0x00	; 0
      0001E8 00                     569 	.db #0x00	; 0
      0001E9 00                     570 	.db #0x00	; 0
      0001EA 63                     571 	.db #0x63	; 99	'c'
      0001EB 63                     572 	.db #0x63	; 99	'c'
      0001EC 63                     573 	.db #0x63	; 99	'c'
      0001ED 63                     574 	.db #0x63	; 99	'c'
      0001EE 63                     575 	.db #0x63	; 99	'c'
      0001EF 63                     576 	.db #0x63	; 99	'c'
      0001F0 63                     577 	.db #0x63	; 99	'c'
      0001F1 63                     578 	.db #0x63	; 99	'c'
      0001F2 63                     579 	.db #0x63	; 99	'c'
      0001F3 63                     580 	.db #0x63	; 99	'c'
      0001F4 7F                     581 	.db #0x7f	; 127
      0001F5 7F                     582 	.db #0x7f	; 127
      0001F6 3E                     583 	.db #0x3e	; 62
      0001F7 3E                     584 	.db #0x3e	; 62
      0001F8 3E                     585 	.db #0x3e	; 62
      0001F9 02                     586 	.db #0x02	; 2
      0001FA 7F                     587 	.db #0x7f	; 127
      0001FB 03                     588 	.db #0x03	; 3
      0001FC 63                     589 	.db #0x63	; 99	'c'
      0001FD 03                     590 	.db #0x03	; 3
      0001FE 63                     591 	.db #0x63	; 99	'c'
      0001FF 03                     592 	.db #0x03	; 3
      000200 63                     593 	.db #0x63	; 99	'c'
      000201 03                     594 	.db #0x03	; 3
      000202 63                     595 	.db #0x63	; 99	'c'
      000203 03                     596 	.db #0x03	; 3
      000204 63                     597 	.db #0x63	; 99	'c'
      000205 03                     598 	.db #0x03	; 3
      000206 3C                     599 	.db #0x3c	; 60
      000207 00                     600 	.db #0x00	; 0
      000208 3C                     601 	.db #0x3c	; 60
      000209 00                     602 	.db #0x00	; 0
      00020A 63                     603 	.db #0x63	; 99	'c'
      00020B 03                     604 	.db #0x03	; 3
      00020C 63                     605 	.db #0x63	; 99	'c'
      00020D 03                     606 	.db #0x03	; 3
      00020E 63                     607 	.db #0x63	; 99	'c'
      00020F 03                     608 	.db #0x03	; 3
      000210 63                     609 	.db #0x63	; 99	'c'
      000211 03                     610 	.db #0x03	; 3
      000212 63                     611 	.db #0x63	; 99	'c'
      000213 03                     612 	.db #0x03	; 3
      000214 7F                     613 	.db #0x7f	; 127
      000215 03                     614 	.db #0x03	; 3
      000216 3E                     615 	.db #0x3e	; 62
      000217 02                     616 	.db #0x02	; 2
      000218 3E                     617 	.db #0x3e	; 62
      000219 3E                     618 	.db #0x3e	; 62
      00021A 7F                     619 	.db #0x7f	; 127
      00021B 7F                     620 	.db #0x7f	; 127
      00021C 63                     621 	.db #0x63	; 99	'c'
      00021D 03                     622 	.db #0x03	; 3
      00021E 63                     623 	.db #0x63	; 99	'c'
      00021F 03                     624 	.db #0x03	; 3
      000220 63                     625 	.db #0x63	; 99	'c'
      000221 03                     626 	.db #0x03	; 3
      000222 63                     627 	.db #0x63	; 99	'c'
      000223 03                     628 	.db #0x03	; 3
      000224 63                     629 	.db #0x63	; 99	'c'
      000225 03                     630 	.db #0x03	; 3
      000226 3E                     631 	.db #0x3e	; 62
      000227 3E                     632 	.db #0x3e	; 62
      000228 3E                     633 	.db #0x3e	; 62
      000229 3E                     634 	.db #0x3e	; 62
      00022A 63                     635 	.db #0x63	; 99	'c'
      00022B 60                     636 	.db #0x60	; 96
      00022C 63                     637 	.db #0x63	; 99	'c'
      00022D 60                     638 	.db #0x60	; 96
      00022E 63                     639 	.db #0x63	; 99	'c'
      00022F 60                     640 	.db #0x60	; 96
      000230 63                     641 	.db #0x63	; 99	'c'
      000231 60                     642 	.db #0x60	; 96
      000232 63                     643 	.db #0x63	; 99	'c'
      000233 60                     644 	.db #0x60	; 96
      000234 7F                     645 	.db #0x7f	; 127
      000235 7F                     646 	.db #0x7f	; 127
      000236 3E                     647 	.db #0x3e	; 62
      000237 3E                     648 	.db #0x3e	; 62
      000238 3E                     649 	.db #0x3e	; 62
      000239 3E                     650 	.db #0x3e	; 62
      00023A 7F                     651 	.db #0x7f	; 127
      00023B 7F                     652 	.db #0x7f	; 127
      00023C 63                     653 	.db #0x63	; 99	'c'
      00023D 03                     654 	.db #0x03	; 3
      00023E 63                     655 	.db #0x63	; 99	'c'
      00023F 03                     656 	.db #0x03	; 3
      000240 63                     657 	.db #0x63	; 99	'c'
      000241 03                     658 	.db #0x03	; 3
      000242 63                     659 	.db #0x63	; 99	'c'
      000243 03                     660 	.db #0x03	; 3
      000244 63                     661 	.db #0x63	; 99	'c'
      000245 03                     662 	.db #0x03	; 3
      000246 3E                     663 	.db #0x3e	; 62
      000247 3E                     664 	.db #0x3e	; 62
      000248 3E                     665 	.db #0x3e	; 62
      000249 3E                     666 	.db #0x3e	; 62
      00024A 63                     667 	.db #0x63	; 99	'c'
      00024B 03                     668 	.db #0x03	; 3
      00024C 63                     669 	.db #0x63	; 99	'c'
      00024D 03                     670 	.db #0x03	; 3
      00024E 63                     671 	.db #0x63	; 99	'c'
      00024F 03                     672 	.db #0x03	; 3
      000250 63                     673 	.db #0x63	; 99	'c'
      000251 03                     674 	.db #0x03	; 3
      000252 63                     675 	.db #0x63	; 99	'c'
      000253 03                     676 	.db #0x03	; 3
      000254 7F                     677 	.db #0x7f	; 127
      000255 7F                     678 	.db #0x7f	; 127
      000256 3E                     679 	.db #0x3e	; 62
      000257 3E                     680 	.db #0x3e	; 62
      000258 3E                     681 	.db #0x3e	; 62
      000259 22                     682 	.db #0x22	; 34
      00025A 7F                     683 	.db #0x7f	; 127
      00025B 63                     684 	.db #0x63	; 99	'c'
      00025C 63                     685 	.db #0x63	; 99	'c'
      00025D 63                     686 	.db #0x63	; 99	'c'
      00025E 63                     687 	.db #0x63	; 99	'c'
      00025F 63                     688 	.db #0x63	; 99	'c'
      000260 63                     689 	.db #0x63	; 99	'c'
      000261 63                     690 	.db #0x63	; 99	'c'
      000262 63                     691 	.db #0x63	; 99	'c'
      000263 63                     692 	.db #0x63	; 99	'c'
      000264 63                     693 	.db #0x63	; 99	'c'
      000265 63                     694 	.db #0x63	; 99	'c'
      000266 3E                     695 	.db #0x3e	; 62
      000267 3E                     696 	.db #0x3e	; 62
      000268 3E                     697 	.db #0x3e	; 62
      000269 3E                     698 	.db #0x3e	; 62
      00026A 63                     699 	.db #0x63	; 99	'c'
      00026B 03                     700 	.db #0x03	; 3
      00026C 63                     701 	.db #0x63	; 99	'c'
      00026D 03                     702 	.db #0x03	; 3
      00026E 63                     703 	.db #0x63	; 99	'c'
      00026F 03                     704 	.db #0x03	; 3
      000270 63                     705 	.db #0x63	; 99	'c'
      000271 03                     706 	.db #0x03	; 3
      000272 63                     707 	.db #0x63	; 99	'c'
      000273 03                     708 	.db #0x03	; 3
      000274 7F                     709 	.db #0x7f	; 127
      000275 03                     710 	.db #0x03	; 3
      000276 3E                     711 	.db #0x3e	; 62
      000277 02                     712 	.db #0x02	; 2
      000278 3E                     713 	.db #0x3e	; 62
      000279 3E                     714 	.db #0x3e	; 62
      00027A 7F                     715 	.db #0x7f	; 127
      00027B 7F                     716 	.db #0x7f	; 127
      00027C 63                     717 	.db #0x63	; 99	'c'
      00027D 60                     718 	.db #0x60	; 96
      00027E 63                     719 	.db #0x63	; 99	'c'
      00027F 60                     720 	.db #0x60	; 96
      000280 63                     721 	.db #0x63	; 99	'c'
      000281 60                     722 	.db #0x60	; 96
      000282 63                     723 	.db #0x63	; 99	'c'
      000283 60                     724 	.db #0x60	; 96
      000284 63                     725 	.db #0x63	; 99	'c'
      000285 60                     726 	.db #0x60	; 96
      000286 3E                     727 	.db #0x3e	; 62
      000287 3E                     728 	.db #0x3e	; 62
      000288 3E                     729 	.db #0x3e	; 62
      000289 3E                     730 	.db #0x3e	; 62
      00028A 63                     731 	.db #0x63	; 99	'c'
      00028B 03                     732 	.db #0x03	; 3
      00028C 63                     733 	.db #0x63	; 99	'c'
      00028D 03                     734 	.db #0x03	; 3
      00028E 63                     735 	.db #0x63	; 99	'c'
      00028F 03                     736 	.db #0x03	; 3
      000290 63                     737 	.db #0x63	; 99	'c'
      000291 03                     738 	.db #0x03	; 3
      000292 63                     739 	.db #0x63	; 99	'c'
      000293 03                     740 	.db #0x03	; 3
      000294 7F                     741 	.db #0x7f	; 127
      000295 7F                     742 	.db #0x7f	; 127
      000296 3E                     743 	.db #0x3e	; 62
      000297 3E                     744 	.db #0x3e	; 62
      000298 3E                     745 	.db #0x3e	; 62
      000299 3E                     746 	.db #0x3e	; 62
      00029A 7F                     747 	.db #0x7f	; 127
      00029B 7F                     748 	.db #0x7f	; 127
      00029C 63                     749 	.db #0x63	; 99	'c'
      00029D 60                     750 	.db #0x60	; 96
      00029E 63                     751 	.db #0x63	; 99	'c'
      00029F 60                     752 	.db #0x60	; 96
      0002A0 63                     753 	.db #0x63	; 99	'c'
      0002A1 60                     754 	.db #0x60	; 96
      0002A2 63                     755 	.db #0x63	; 99	'c'
      0002A3 60                     756 	.db #0x60	; 96
      0002A4 63                     757 	.db #0x63	; 99	'c'
      0002A5 60                     758 	.db #0x60	; 96
      0002A6 3E                     759 	.db #0x3e	; 62
      0002A7 3E                     760 	.db #0x3e	; 62
      0002A8 3E                     761 	.db #0x3e	; 62
      0002A9 3E                     762 	.db #0x3e	; 62
      0002AA 63                     763 	.db #0x63	; 99	'c'
      0002AB 63                     764 	.db #0x63	; 99	'c'
      0002AC 63                     765 	.db #0x63	; 99	'c'
      0002AD 63                     766 	.db #0x63	; 99	'c'
      0002AE 63                     767 	.db #0x63	; 99	'c'
      0002AF 63                     768 	.db #0x63	; 99	'c'
      0002B0 63                     769 	.db #0x63	; 99	'c'
      0002B1 63                     770 	.db #0x63	; 99	'c'
      0002B2 63                     771 	.db #0x63	; 99	'c'
      0002B3 63                     772 	.db #0x63	; 99	'c'
      0002B4 7F                     773 	.db #0x7f	; 127
      0002B5 7F                     774 	.db #0x7f	; 127
      0002B6 3E                     775 	.db #0x3e	; 62
      0002B7 3E                     776 	.db #0x3e	; 62
      0002B8 3E                     777 	.db #0x3e	; 62
      0002B9 3E                     778 	.db #0x3e	; 62
      0002BA 7F                     779 	.db #0x7f	; 127
      0002BB 7F                     780 	.db #0x7f	; 127
      0002BC 63                     781 	.db #0x63	; 99	'c'
      0002BD 03                     782 	.db #0x03	; 3
      0002BE 63                     783 	.db #0x63	; 99	'c'
      0002BF 03                     784 	.db #0x03	; 3
      0002C0 63                     785 	.db #0x63	; 99	'c'
      0002C1 03                     786 	.db #0x03	; 3
      0002C2 63                     787 	.db #0x63	; 99	'c'
      0002C3 03                     788 	.db #0x03	; 3
      0002C4 63                     789 	.db #0x63	; 99	'c'
      0002C5 03                     790 	.db #0x03	; 3
      0002C6 3E                     791 	.db #0x3e	; 62
      0002C7 00                     792 	.db #0x00	; 0
      0002C8 3E                     793 	.db #0x3e	; 62
      0002C9 00                     794 	.db #0x00	; 0
      0002CA 63                     795 	.db #0x63	; 99	'c'
      0002CB 03                     796 	.db #0x03	; 3
      0002CC 63                     797 	.db #0x63	; 99	'c'
      0002CD 03                     798 	.db #0x03	; 3
      0002CE 63                     799 	.db #0x63	; 99	'c'
      0002CF 03                     800 	.db #0x03	; 3
      0002D0 63                     801 	.db #0x63	; 99	'c'
      0002D1 03                     802 	.db #0x03	; 3
      0002D2 63                     803 	.db #0x63	; 99	'c'
      0002D3 03                     804 	.db #0x03	; 3
      0002D4 7F                     805 	.db #0x7f	; 127
      0002D5 03                     806 	.db #0x03	; 3
      0002D6 3E                     807 	.db #0x3e	; 62
      0002D7 02                     808 	.db #0x02	; 2
      0002D8 3E                     809 	.db #0x3e	; 62
      0002D9 3E                     810 	.db #0x3e	; 62
      0002DA 7F                     811 	.db #0x7f	; 127
      0002DB 7F                     812 	.db #0x7f	; 127
      0002DC 63                     813 	.db #0x63	; 99	'c'
      0002DD 63                     814 	.db #0x63	; 99	'c'
      0002DE 63                     815 	.db #0x63	; 99	'c'
      0002DF 63                     816 	.db #0x63	; 99	'c'
      0002E0 63                     817 	.db #0x63	; 99	'c'
      0002E1 63                     818 	.db #0x63	; 99	'c'
      0002E2 63                     819 	.db #0x63	; 99	'c'
      0002E3 63                     820 	.db #0x63	; 99	'c'
      0002E4 63                     821 	.db #0x63	; 99	'c'
      0002E5 63                     822 	.db #0x63	; 99	'c'
      0002E6 3E                     823 	.db #0x3e	; 62
      0002E7 3E                     824 	.db #0x3e	; 62
      0002E8 3E                     825 	.db #0x3e	; 62
      0002E9 3E                     826 	.db #0x3e	; 62
      0002EA 63                     827 	.db #0x63	; 99	'c'
      0002EB 63                     828 	.db #0x63	; 99	'c'
      0002EC 63                     829 	.db #0x63	; 99	'c'
      0002ED 63                     830 	.db #0x63	; 99	'c'
      0002EE 63                     831 	.db #0x63	; 99	'c'
      0002EF 63                     832 	.db #0x63	; 99	'c'
      0002F0 63                     833 	.db #0x63	; 99	'c'
      0002F1 63                     834 	.db #0x63	; 99	'c'
      0002F2 63                     835 	.db #0x63	; 99	'c'
      0002F3 63                     836 	.db #0x63	; 99	'c'
      0002F4 7F                     837 	.db #0x7f	; 127
      0002F5 7F                     838 	.db #0x7f	; 127
      0002F6 3E                     839 	.db #0x3e	; 62
      0002F7 3E                     840 	.db #0x3e	; 62
      0002F8 3E                     841 	.db #0x3e	; 62
      0002F9 3E                     842 	.db #0x3e	; 62
      0002FA 7F                     843 	.db #0x7f	; 127
      0002FB 7F                     844 	.db #0x7f	; 127
      0002FC 63                     845 	.db #0x63	; 99	'c'
      0002FD 63                     846 	.db #0x63	; 99	'c'
      0002FE 63                     847 	.db #0x63	; 99	'c'
      0002FF 63                     848 	.db #0x63	; 99	'c'
      000300 63                     849 	.db #0x63	; 99	'c'
      000301 63                     850 	.db #0x63	; 99	'c'
      000302 63                     851 	.db #0x63	; 99	'c'
      000303 63                     852 	.db #0x63	; 99	'c'
      000304 63                     853 	.db #0x63	; 99	'c'
      000305 63                     854 	.db #0x63	; 99	'c'
      000306 3E                     855 	.db #0x3e	; 62
      000307 3E                     856 	.db #0x3e	; 62
      000308 3E                     857 	.db #0x3e	; 62
      000309 3E                     858 	.db #0x3e	; 62
      00030A 63                     859 	.db #0x63	; 99	'c'
      00030B 03                     860 	.db #0x03	; 3
      00030C 63                     861 	.db #0x63	; 99	'c'
      00030D 03                     862 	.db #0x03	; 3
      00030E 63                     863 	.db #0x63	; 99	'c'
      00030F 03                     864 	.db #0x03	; 3
      000310 63                     865 	.db #0x63	; 99	'c'
      000311 03                     866 	.db #0x03	; 3
      000312 63                     867 	.db #0x63	; 99	'c'
      000313 03                     868 	.db #0x03	; 3
      000314 7F                     869 	.db #0x7f	; 127
      000315 7F                     870 	.db #0x7f	; 127
      000316 3E                     871 	.db #0x3e	; 62
      000317 3E                     872 	.db #0x3e	; 62
      000318 3E                     873 	.db #0x3e	; 62
      000319 3E                     874 	.db #0x3e	; 62
      00031A 7F                     875 	.db #0x7f	; 127
      00031B 7F                     876 	.db #0x7f	; 127
      00031C 63                     877 	.db #0x63	; 99	'c'
      00031D 63                     878 	.db #0x63	; 99	'c'
      00031E 63                     879 	.db #0x63	; 99	'c'
      00031F 63                     880 	.db #0x63	; 99	'c'
      000320 63                     881 	.db #0x63	; 99	'c'
      000321 63                     882 	.db #0x63	; 99	'c'
      000322 63                     883 	.db #0x63	; 99	'c'
      000323 63                     884 	.db #0x63	; 99	'c'
      000324 63                     885 	.db #0x63	; 99	'c'
      000325 63                     886 	.db #0x63	; 99	'c'
      000326 3E                     887 	.db #0x3e	; 62
      000327 3E                     888 	.db #0x3e	; 62
      000328 3E                     889 	.db #0x3e	; 62
      000329 3E                     890 	.db #0x3e	; 62
      00032A 63                     891 	.db #0x63	; 99	'c'
      00032B 63                     892 	.db #0x63	; 99	'c'
      00032C 63                     893 	.db #0x63	; 99	'c'
      00032D 63                     894 	.db #0x63	; 99	'c'
      00032E 63                     895 	.db #0x63	; 99	'c'
      00032F 63                     896 	.db #0x63	; 99	'c'
      000330 63                     897 	.db #0x63	; 99	'c'
      000331 63                     898 	.db #0x63	; 99	'c'
      000332 63                     899 	.db #0x63	; 99	'c'
      000333 63                     900 	.db #0x63	; 99	'c'
      000334 7F                     901 	.db #0x7f	; 127
      000335 63                     902 	.db #0x63	; 99	'c'
      000336 3E                     903 	.db #0x3e	; 62
      000337 00                     904 	.db #0x00	; 0
      000338 3E                     905 	.db #0x3e	; 62
      000339 20                     906 	.db #0x20	; 32
      00033A 7F                     907 	.db #0x7f	; 127
      00033B 60                     908 	.db #0x60	; 96
      00033C 63                     909 	.db #0x63	; 99	'c'
      00033D 60                     910 	.db #0x60	; 96
      00033E 63                     911 	.db #0x63	; 99	'c'
      00033F 60                     912 	.db #0x60	; 96
      000340 63                     913 	.db #0x63	; 99	'c'
      000341 60                     914 	.db #0x60	; 96
      000342 63                     915 	.db #0x63	; 99	'c'
      000343 60                     916 	.db #0x60	; 96
      000344 63                     917 	.db #0x63	; 99	'c'
      000345 60                     918 	.db #0x60	; 96
      000346 3E                     919 	.db #0x3e	; 62
      000347 3E                     920 	.db #0x3e	; 62
      000348 3E                     921 	.db #0x3e	; 62
      000349 3E                     922 	.db #0x3e	; 62
      00034A 63                     923 	.db #0x63	; 99	'c'
      00034B 63                     924 	.db #0x63	; 99	'c'
      00034C 63                     925 	.db #0x63	; 99	'c'
      00034D 63                     926 	.db #0x63	; 99	'c'
      00034E 63                     927 	.db #0x63	; 99	'c'
      00034F 63                     928 	.db #0x63	; 99	'c'
      000350 63                     929 	.db #0x63	; 99	'c'
      000351 63                     930 	.db #0x63	; 99	'c'
      000352 63                     931 	.db #0x63	; 99	'c'
      000353 63                     932 	.db #0x63	; 99	'c'
      000354 7F                     933 	.db #0x7f	; 127
      000355 7F                     934 	.db #0x7f	; 127
      000356 3E                     935 	.db #0x3e	; 62
      000357 3E                     936 	.db #0x3e	; 62
      000358 3E                     937 	.db #0x3e	; 62
      000359 3E                     938 	.db #0x3e	; 62
      00035A 7F                     939 	.db #0x7f	; 127
      00035B 7F                     940 	.db #0x7f	; 127
      00035C 63                     941 	.db #0x63	; 99	'c'
      00035D 60                     942 	.db #0x60	; 96
      00035E 63                     943 	.db #0x63	; 99	'c'
      00035F 60                     944 	.db #0x60	; 96
      000360 63                     945 	.db #0x63	; 99	'c'
      000361 60                     946 	.db #0x60	; 96
      000362 63                     947 	.db #0x63	; 99	'c'
      000363 60                     948 	.db #0x60	; 96
      000364 63                     949 	.db #0x63	; 99	'c'
      000365 60                     950 	.db #0x60	; 96
      000366 3E                     951 	.db #0x3e	; 62
      000367 20                     952 	.db #0x20	; 32
      000368 3E                     953 	.db #0x3e	; 62
      000369 20                     954 	.db #0x20	; 32
      00036A 63                     955 	.db #0x63	; 99	'c'
      00036B 60                     956 	.db #0x60	; 96
      00036C 63                     957 	.db #0x63	; 99	'c'
      00036D 60                     958 	.db #0x60	; 96
      00036E 63                     959 	.db #0x63	; 99	'c'
      00036F 60                     960 	.db #0x60	; 96
      000370 63                     961 	.db #0x63	; 99	'c'
      000371 60                     962 	.db #0x60	; 96
      000372 63                     963 	.db #0x63	; 99	'c'
      000373 60                     964 	.db #0x60	; 96
      000374 7F                     965 	.db #0x7f	; 127
      000375 7F                     966 	.db #0x7f	; 127
      000376 3E                     967 	.db #0x3e	; 62
      000377 3E                     968 	.db #0x3e	; 62
      000378 3E                     969 	.db #0x3e	; 62
      000379 02                     970 	.db #0x02	; 2
      00037A 7F                     971 	.db #0x7f	; 127
      00037B 03                     972 	.db #0x03	; 3
      00037C 63                     973 	.db #0x63	; 99	'c'
      00037D 03                     974 	.db #0x03	; 3
      00037E 63                     975 	.db #0x63	; 99	'c'
      00037F 03                     976 	.db #0x03	; 3
      000380 63                     977 	.db #0x63	; 99	'c'
      000381 03                     978 	.db #0x03	; 3
      000382 63                     979 	.db #0x63	; 99	'c'
      000383 03                     980 	.db #0x03	; 3
      000384 63                     981 	.db #0x63	; 99	'c'
      000385 03                     982 	.db #0x03	; 3
      000386 3E                     983 	.db #0x3e	; 62
      000387 3E                     984 	.db #0x3e	; 62
      000388 3E                     985 	.db #0x3e	; 62
      000389 3E                     986 	.db #0x3e	; 62
      00038A 63                     987 	.db #0x63	; 99	'c'
      00038B 63                     988 	.db #0x63	; 99	'c'
      00038C 63                     989 	.db #0x63	; 99	'c'
      00038D 63                     990 	.db #0x63	; 99	'c'
      00038E 63                     991 	.db #0x63	; 99	'c'
      00038F 63                     992 	.db #0x63	; 99	'c'
      000390 63                     993 	.db #0x63	; 99	'c'
      000391 63                     994 	.db #0x63	; 99	'c'
      000392 63                     995 	.db #0x63	; 99	'c'
      000393 63                     996 	.db #0x63	; 99	'c'
      000394 7F                     997 	.db #0x7f	; 127
      000395 7F                     998 	.db #0x7f	; 127
      000396 3E                     999 	.db #0x3e	; 62
      000397 3E                    1000 	.db #0x3e	; 62
      000398 00                    1001 	.db #0x00	; 0
      000399 00                    1002 	.db #0x00	; 0
      00039A 36                    1003 	.db #0x36	; 54	'6'
      00039B 36                    1004 	.db #0x36	; 54	'6'
      00039C 36                    1005 	.db #0x36	; 54	'6'
      00039D 36                    1006 	.db #0x36	; 54	'6'
      00039E 36                    1007 	.db #0x36	; 54	'6'
      00039F 36                    1008 	.db #0x36	; 54	'6'
      0003A0 36                    1009 	.db #0x36	; 54	'6'
      0003A1 36                    1010 	.db #0x36	; 54	'6'
      0003A2 7F                    1011 	.db #0x7f	; 127
      0003A3 7F                    1012 	.db #0x7f	; 127
      0003A4 7F                    1013 	.db #0x7f	; 127
      0003A5 7F                    1014 	.db #0x7f	; 127
      0003A6 36                    1015 	.db #0x36	; 54	'6'
      0003A7 36                    1016 	.db #0x36	; 54	'6'
      0003A8 36                    1017 	.db #0x36	; 54	'6'
      0003A9 36                    1018 	.db #0x36	; 54	'6'
      0003AA 7F                    1019 	.db #0x7f	; 127
      0003AB 7F                    1020 	.db #0x7f	; 127
      0003AC 7F                    1021 	.db #0x7f	; 127
      0003AD 7F                    1022 	.db #0x7f	; 127
      0003AE 36                    1023 	.db #0x36	; 54	'6'
      0003AF 36                    1024 	.db #0x36	; 54	'6'
      0003B0 36                    1025 	.db #0x36	; 54	'6'
      0003B1 36                    1026 	.db #0x36	; 54	'6'
      0003B2 36                    1027 	.db #0x36	; 54	'6'
      0003B3 36                    1028 	.db #0x36	; 54	'6'
      0003B4 36                    1029 	.db #0x36	; 54	'6'
      0003B5 36                    1030 	.db #0x36	; 54	'6'
      0003B6 00                    1031 	.db #0x00	; 0
      0003B7 00                    1032 	.db #0x00	; 0
      0003B8 00                    1033 	.db #0x00	; 0
      0003B9 00                    1034 	.db #0x00	; 0
      0003BA 00                    1035 	.db #0x00	; 0
      0003BB 00                    1036 	.db #0x00	; 0
      0003BC 2A                    1037 	.db #0x2a	; 42
      0003BD 2A                    1038 	.db #0x2a	; 42
      0003BE 6B                    1039 	.db #0x6b	; 107	'k'
      0003BF 6B                    1040 	.db #0x6b	; 107	'k'
      0003C0 6B                    1041 	.db #0x6b	; 107	'k'
      0003C1 6B                    1042 	.db #0x6b	; 107	'k'
      0003C2 6B                    1043 	.db #0x6b	; 107	'k'
      0003C3 6B                    1044 	.db #0x6b	; 107	'k'
      0003C4 3E                    1045 	.db #0x3e	; 62
      0003C5 3E                    1046 	.db #0x3e	; 62
      0003C6 1C                    1047 	.db #0x1c	; 28
      0003C7 1C                    1048 	.db #0x1c	; 28
      0003C8 3E                    1049 	.db #0x3e	; 62
      0003C9 3E                    1050 	.db #0x3e	; 62
      0003CA 6B                    1051 	.db #0x6b	; 107	'k'
      0003CB 6B                    1052 	.db #0x6b	; 107	'k'
      0003CC 6B                    1053 	.db #0x6b	; 107	'k'
      0003CD 6B                    1054 	.db #0x6b	; 107	'k'
      0003CE 6B                    1055 	.db #0x6b	; 107	'k'
      0003CF 6B                    1056 	.db #0x6b	; 107	'k'
      0003D0 2A                    1057 	.db #0x2a	; 42
      0003D1 2A                    1058 	.db #0x2a	; 42
      0003D2 00                    1059 	.db #0x00	; 0
      0003D3 00                    1060 	.db #0x00	; 0
      0003D4 00                    1061 	.db #0x00	; 0
      0003D5 00                    1062 	.db #0x00	; 0
      0003D6 00                    1063 	.db #0x00	; 0
      0003D7 00                    1064 	.db #0x00	; 0
      0003D8 3E                    1065 	.db #0x3e	; 62
      0003D9 00                    1066 	.db #0x00	; 0
      0003DA 7F                    1067 	.db #0x7f	; 127
      0003DB 00                    1068 	.db #0x00	; 0
      0003DC 63                    1069 	.db #0x63	; 99	'c'
      0003DD 00                    1070 	.db #0x00	; 0
      0003DE 63                    1071 	.db #0x63	; 99	'c'
      0003DF 00                    1072 	.db #0x00	; 0
      0003E0 63                    1073 	.db #0x63	; 99	'c'
      0003E1 00                    1074 	.db #0x00	; 0
      0003E2 63                    1075 	.db #0x63	; 99	'c'
      0003E3 00                    1076 	.db #0x00	; 0
      0003E4 63                    1077 	.db #0x63	; 99	'c'
      0003E5 00                    1078 	.db #0x00	; 0
      0003E6 3E                    1079 	.db #0x3e	; 62
      0003E7 00                    1080 	.db #0x00	; 0
      0003E8 3E                    1081 	.db #0x3e	; 62
      0003E9 00                    1082 	.db #0x00	; 0
      0003EA 63                    1083 	.db #0x63	; 99	'c'
      0003EB 00                    1084 	.db #0x00	; 0
      0003EC 63                    1085 	.db #0x63	; 99	'c'
      0003ED 00                    1086 	.db #0x00	; 0
      0003EE 63                    1087 	.db #0x63	; 99	'c'
      0003EF 00                    1088 	.db #0x00	; 0
      0003F0 63                    1089 	.db #0x63	; 99	'c'
      0003F1 00                    1090 	.db #0x00	; 0
      0003F2 63                    1091 	.db #0x63	; 99	'c'
      0003F3 00                    1092 	.db #0x00	; 0
      0003F4 7F                    1093 	.db #0x7f	; 127
      0003F5 00                    1094 	.db #0x00	; 0
      0003F6 3E                    1095 	.db #0x3e	; 62
      0003F7 00                    1096 	.db #0x00	; 0
      0003F8 3E                    1097 	.db #0x3e	; 62
      0003F9 22                    1098 	.db #0x22	; 34
      0003FA 7F                    1099 	.db #0x7f	; 127
      0003FB 63                    1100 	.db #0x63	; 99	'c'
      0003FC 63                    1101 	.db #0x63	; 99	'c'
      0003FD 63                    1102 	.db #0x63	; 99	'c'
      0003FE 63                    1103 	.db #0x63	; 99	'c'
      0003FF 63                    1104 	.db #0x63	; 99	'c'
      000400 63                    1105 	.db #0x63	; 99	'c'
      000401 63                    1106 	.db #0x63	; 99	'c'
      000402 63                    1107 	.db #0x63	; 99	'c'
      000403 63                    1108 	.db #0x63	; 99	'c'
      000404 63                    1109 	.db #0x63	; 99	'c'
      000405 63                    1110 	.db #0x63	; 99	'c'
      000406 3E                    1111 	.db #0x3e	; 62
      000407 3E                    1112 	.db #0x3e	; 62
      000408 3E                    1113 	.db #0x3e	; 62
      000409 3E                    1114 	.db #0x3e	; 62
      00040A 63                    1115 	.db #0x63	; 99	'c'
      00040B 03                    1116 	.db #0x03	; 3
      00040C 63                    1117 	.db #0x63	; 99	'c'
      00040D 03                    1118 	.db #0x03	; 3
      00040E 63                    1119 	.db #0x63	; 99	'c'
      00040F 03                    1120 	.db #0x03	; 3
      000410 63                    1121 	.db #0x63	; 99	'c'
      000411 03                    1122 	.db #0x03	; 3
      000412 63                    1123 	.db #0x63	; 99	'c'
      000413 03                    1124 	.db #0x03	; 3
      000414 7F                    1125 	.db #0x7f	; 127
      000415 7F                    1126 	.db #0x7f	; 127
      000416 3E                    1127 	.db #0x3e	; 62
      000417 3E                    1128 	.db #0x3e	; 62
      000418 3E                    1129 	.db #0x3e	; 62
      000419 22                    1130 	.db #0x22	; 34
      00041A 7F                    1131 	.db #0x7f	; 127
      00041B 63                    1132 	.db #0x63	; 99	'c'
      00041C 77                    1133 	.db #0x77	; 119	'w'
      00041D 77                    1134 	.db #0x77	; 119	'w'
      00041E 77                    1135 	.db #0x77	; 119	'w'
      00041F 77                    1136 	.db #0x77	; 119	'w'
      000420 77                    1137 	.db #0x77	; 119	'w'
      000421 77                    1138 	.db #0x77	; 119	'w'
      000422 77                    1139 	.db #0x77	; 119	'w'
      000423 77                    1140 	.db #0x77	; 119	'w'
      000424 6B                    1141 	.db #0x6b	; 107	'k'
      000425 6B                    1142 	.db #0x6b	; 107	'k'
      000426 2A                    1143 	.db #0x2a	; 42
      000427 2A                    1144 	.db #0x2a	; 42
      000428 2A                    1145 	.db #0x2a	; 42
      000429 2A                    1146 	.db #0x2a	; 42
      00042A 6B                    1147 	.db #0x6b	; 107	'k'
      00042B 6B                    1148 	.db #0x6b	; 107	'k'
      00042C 63                    1149 	.db #0x63	; 99	'c'
      00042D 63                    1150 	.db #0x63	; 99	'c'
      00042E 63                    1151 	.db #0x63	; 99	'c'
      00042F 63                    1152 	.db #0x63	; 99	'c'
      000430 63                    1153 	.db #0x63	; 99	'c'
      000431 63                    1154 	.db #0x63	; 99	'c'
      000432 63                    1155 	.db #0x63	; 99	'c'
      000433 63                    1156 	.db #0x63	; 99	'c'
      000434 7F                    1157 	.db #0x7f	; 127
      000435 63                    1158 	.db #0x63	; 99	'c'
      000436 3E                    1159 	.db #0x3e	; 62
      000437 22                    1160 	.db #0x22	; 34
      000438 3E                    1161 	.db #0x3e	; 62
      000439 22                    1162 	.db #0x22	; 34
      00043A 7F                    1163 	.db #0x7f	; 127
      00043B 63                    1164 	.db #0x63	; 99	'c'
      00043C 63                    1165 	.db #0x63	; 99	'c'
      00043D 63                    1166 	.db #0x63	; 99	'c'
      00043E 63                    1167 	.db #0x63	; 99	'c'
      00043F 63                    1168 	.db #0x63	; 99	'c'
      000440 63                    1169 	.db #0x63	; 99	'c'
      000441 63                    1170 	.db #0x63	; 99	'c'
      000442 63                    1171 	.db #0x63	; 99	'c'
      000443 63                    1172 	.db #0x63	; 99	'c'
      000444 63                    1173 	.db #0x63	; 99	'c'
      000445 63                    1174 	.db #0x63	; 99	'c'
      000446 3E                    1175 	.db #0x3e	; 62
      000447 22                    1176 	.db #0x22	; 34
      000448 3E                    1177 	.db #0x3e	; 62
      000449 22                    1178 	.db #0x22	; 34
      00044A 63                    1179 	.db #0x63	; 99	'c'
      00044B 63                    1180 	.db #0x63	; 99	'c'
      00044C 63                    1181 	.db #0x63	; 99	'c'
      00044D 63                    1182 	.db #0x63	; 99	'c'
      00044E 63                    1183 	.db #0x63	; 99	'c'
      00044F 63                    1184 	.db #0x63	; 99	'c'
      000450 63                    1185 	.db #0x63	; 99	'c'
      000451 63                    1186 	.db #0x63	; 99	'c'
      000452 63                    1187 	.db #0x63	; 99	'c'
      000453 63                    1188 	.db #0x63	; 99	'c'
      000454 7F                    1189 	.db #0x7f	; 127
      000455 7F                    1190 	.db #0x7f	; 127
      000456 3E                    1191 	.db #0x3e	; 62
      000457 3E                    1192 	.db #0x3e	; 62
      000458 3E                    1193 	.db #0x3e	; 62
      000459 3E                    1194 	.db #0x3e	; 62
      00045A 7F                    1195 	.db #0x7f	; 127
      00045B 7F                    1196 	.db #0x7f	; 127
      00045C 63                    1197 	.db #0x63	; 99	'c'
      00045D 60                    1198 	.db #0x60	; 96
      00045E 63                    1199 	.db #0x63	; 99	'c'
      00045F 60                    1200 	.db #0x60	; 96
      000460 63                    1201 	.db #0x63	; 99	'c'
      000461 60                    1202 	.db #0x60	; 96
      000462 63                    1203 	.db #0x63	; 99	'c'
      000463 60                    1204 	.db #0x60	; 96
      000464 63                    1205 	.db #0x63	; 99	'c'
      000465 60                    1206 	.db #0x60	; 96
      000466 3F                    1207 	.db #0x3f	; 63
      000467 27                    1208 	.db #0x27	; 39
      000468 3F                    1209 	.db #0x3f	; 63
      000469 27                    1210 	.db #0x27	; 39
      00046A 63                    1211 	.db #0x63	; 99	'c'
      00046B 63                    1212 	.db #0x63	; 99	'c'
      00046C 63                    1213 	.db #0x63	; 99	'c'
      00046D 63                    1214 	.db #0x63	; 99	'c'
      00046E 63                    1215 	.db #0x63	; 99	'c'
      00046F 63                    1216 	.db #0x63	; 99	'c'
      000470 63                    1217 	.db #0x63	; 99	'c'
      000471 63                    1218 	.db #0x63	; 99	'c'
      000472 63                    1219 	.db #0x63	; 99	'c'
      000473 63                    1220 	.db #0x63	; 99	'c'
      000474 7F                    1221 	.db #0x7f	; 127
      000475 7F                    1222 	.db #0x7f	; 127
      000476 3E                    1223 	.db #0x3e	; 62
      000477 3E                    1224 	.db #0x3e	; 62
      000478 00                    1225 	.db #0x00	; 0
      000479 00                    1226 	.db #0x00	; 0
      00047A 00                    1227 	.db #0x00	; 0
      00047B 00                    1228 	.db #0x00	; 0
      00047C 00                    1229 	.db #0x00	; 0
      00047D 00                    1230 	.db #0x00	; 0
      00047E 00                    1231 	.db #0x00	; 0
      00047F 00                    1232 	.db #0x00	; 0
      000480 00                    1233 	.db #0x00	; 0
      000481 00                    1234 	.db #0x00	; 0
      000482 00                    1235 	.db #0x00	; 0
      000483 00                    1236 	.db #0x00	; 0
      000484 00                    1237 	.db #0x00	; 0
      000485 00                    1238 	.db #0x00	; 0
      000486 3E                    1239 	.db #0x3e	; 62
      000487 3E                    1240 	.db #0x3e	; 62
      000488 3E                    1241 	.db #0x3e	; 62
      000489 3E                    1242 	.db #0x3e	; 62
      00048A 00                    1243 	.db #0x00	; 0
      00048B 00                    1244 	.db #0x00	; 0
      00048C 00                    1245 	.db #0x00	; 0
      00048D 00                    1246 	.db #0x00	; 0
      00048E 00                    1247 	.db #0x00	; 0
      00048F 00                    1248 	.db #0x00	; 0
      000490 00                    1249 	.db #0x00	; 0
      000491 00                    1250 	.db #0x00	; 0
      000492 00                    1251 	.db #0x00	; 0
      000493 00                    1252 	.db #0x00	; 0
      000494 00                    1253 	.db #0x00	; 0
      000495 00                    1254 	.db #0x00	; 0
      000496 00                    1255 	.db #0x00	; 0
      000497 00                    1256 	.db #0x00	; 0
      000498 67                    1257 	.db #0x67	; 103	'g'
      000499 67                    1258 	.db #0x67	; 103	'g'
      00049A 67                    1259 	.db #0x67	; 103	'g'
      00049B 67                    1260 	.db #0x67	; 103	'g'
      00049C 18                    1261 	.db #0x18	; 24
      00049D 18                    1262 	.db #0x18	; 24
      00049E 18                    1263 	.db #0x18	; 24
      00049F 18                    1264 	.db #0x18	; 24
      0004A0 18                    1265 	.db #0x18	; 24
      0004A1 18                    1266 	.db #0x18	; 24
      0004A2 18                    1267 	.db #0x18	; 24
      0004A3 18                    1268 	.db #0x18	; 24
      0004A4 18                    1269 	.db #0x18	; 24
      0004A5 18                    1270 	.db #0x18	; 24
      0004A6 00                    1271 	.db #0x00	; 0
      0004A7 00                    1272 	.db #0x00	; 0
      0004A8 18                    1273 	.db #0x18	; 24
      0004A9 18                    1274 	.db #0x18	; 24
      0004AA 18                    1275 	.db #0x18	; 24
      0004AB 18                    1276 	.db #0x18	; 24
      0004AC 18                    1277 	.db #0x18	; 24
      0004AD 18                    1278 	.db #0x18	; 24
      0004AE 18                    1279 	.db #0x18	; 24
      0004AF 18                    1280 	.db #0x18	; 24
      0004B0 18                    1281 	.db #0x18	; 24
      0004B1 18                    1282 	.db #0x18	; 24
      0004B2 18                    1283 	.db #0x18	; 24
      0004B3 18                    1284 	.db #0x18	; 24
      0004B4 18                    1285 	.db #0x18	; 24
      0004B5 18                    1286 	.db #0x18	; 24
      0004B6 00                    1287 	.db #0x00	; 0
      0004B7 00                    1288 	.db #0x00	; 0
      0004B8 00                    1289 	.db #0x00	; 0
      0004B9 00                    1290 	.db #0x00	; 0
      0004BA 00                    1291 	.db #0x00	; 0
      0004BB 00                    1292 	.db #0x00	; 0
      0004BC 00                    1293 	.db #0x00	; 0
      0004BD 00                    1294 	.db #0x00	; 0
      0004BE 00                    1295 	.db #0x00	; 0
      0004BF 00                    1296 	.db #0x00	; 0
      0004C0 00                    1297 	.db #0x00	; 0
      0004C1 00                    1298 	.db #0x00	; 0
      0004C2 00                    1299 	.db #0x00	; 0
      0004C3 00                    1300 	.db #0x00	; 0
      0004C4 00                    1301 	.db #0x00	; 0
      0004C5 00                    1302 	.db #0x00	; 0
      0004C6 00                    1303 	.db #0x00	; 0
      0004C7 00                    1304 	.db #0x00	; 0
      0004C8 0C                    1305 	.db #0x0c	; 12
      0004C9 0C                    1306 	.db #0x0c	; 12
      0004CA 1E                    1307 	.db #0x1e	; 30
      0004CB 1E                    1308 	.db #0x1e	; 30
      0004CC 1E                    1309 	.db #0x1e	; 30
      0004CD 1E                    1310 	.db #0x1e	; 30
      0004CE 1E                    1311 	.db #0x1e	; 30
      0004CF 1E                    1312 	.db #0x1e	; 30
      0004D0 0C                    1313 	.db #0x0c	; 12
      0004D1 0C                    1314 	.db #0x0c	; 12
      0004D2 04                    1315 	.db #0x04	; 4
      0004D3 04                    1316 	.db #0x04	; 4
      0004D4 08                    1317 	.db #0x08	; 8
      0004D5 08                    1318 	.db #0x08	; 8
      0004D6 00                    1319 	.db #0x00	; 0
      0004D7 00                    1320 	.db #0x00	; 0
      0004D8 3E                    1321 	.db #0x3e	; 62
      0004D9 3E                    1322 	.db #0x3e	; 62
      0004DA 7E                    1323 	.db #0x7e	; 126
      0004DB 7E                    1324 	.db #0x7e	; 126
      0004DC 63                    1325 	.db #0x63	; 99	'c'
      0004DD 60                    1326 	.db #0x60	; 96
      0004DE 63                    1327 	.db #0x63	; 99	'c'
      0004DF 60                    1328 	.db #0x60	; 96
      0004E0 63                    1329 	.db #0x63	; 99	'c'
      0004E1 60                    1330 	.db #0x60	; 96
      0004E2 63                    1331 	.db #0x63	; 99	'c'
      0004E3 60                    1332 	.db #0x60	; 96
      0004E4 63                    1333 	.db #0x63	; 99	'c'
      0004E5 60                    1334 	.db #0x60	; 96
      0004E6 3E                    1335 	.db #0x3e	; 62
      0004E7 3E                    1336 	.db #0x3e	; 62
      0004E8 3E                    1337 	.db #0x3e	; 62
      0004E9 3E                    1338 	.db #0x3e	; 62
      0004EA 63                    1339 	.db #0x63	; 99	'c'
      0004EB 60                    1340 	.db #0x60	; 96
      0004EC 63                    1341 	.db #0x63	; 99	'c'
      0004ED 60                    1342 	.db #0x60	; 96
      0004EE 63                    1343 	.db #0x63	; 99	'c'
      0004EF 60                    1344 	.db #0x60	; 96
      0004F0 63                    1345 	.db #0x63	; 99	'c'
      0004F1 60                    1346 	.db #0x60	; 96
      0004F2 63                    1347 	.db #0x63	; 99	'c'
      0004F3 60                    1348 	.db #0x60	; 96
      0004F4 7F                    1349 	.db #0x7f	; 127
      0004F5 60                    1350 	.db #0x60	; 96
      0004F6 3E                    1351 	.db #0x3e	; 62
      0004F7 20                    1352 	.db #0x20	; 32
      0004F8                       1353 _key_num:
      0004F8 FF                    1354 	.db #0xff	; 255
      0004F9 3C                    1355 	.db #0x3c	; 60
      0004FA FF                    1356 	.db #0xff	; 255
      0004FB 7E                    1357 	.db #0x7e	; 126
      0004FC FF                    1358 	.db #0xff	; 255
      0004FD 66                    1359 	.db #0x66	; 102	'f'
      0004FE FF                    1360 	.db #0xff	; 255
      0004FF 66                    1361 	.db #0x66	; 102	'f'
      000500 FF                    1362 	.db #0xff	; 255
      000501 66                    1363 	.db #0x66	; 102	'f'
      000502 FF                    1364 	.db #0xff	; 255
      000503 66                    1365 	.db #0x66	; 102	'f'
      000504 FF                    1366 	.db #0xff	; 255
      000505 7E                    1367 	.db #0x7e	; 126
      000506 FF                    1368 	.db #0xff	; 255
      000507 3C                    1369 	.db #0x3c	; 60
      000508 FF                    1370 	.db #0xff	; 255
      000509 18                    1371 	.db #0x18	; 24
      00050A FF                    1372 	.db #0xff	; 255
      00050B 38                    1373 	.db #0x38	; 56	'8'
      00050C FF                    1374 	.db #0xff	; 255
      00050D 38                    1375 	.db #0x38	; 56	'8'
      00050E FF                    1376 	.db #0xff	; 255
      00050F 18                    1377 	.db #0x18	; 24
      000510 FF                    1378 	.db #0xff	; 255
      000511 18                    1379 	.db #0x18	; 24
      000512 FF                    1380 	.db #0xff	; 255
      000513 18                    1381 	.db #0x18	; 24
      000514 FF                    1382 	.db #0xff	; 255
      000515 18                    1383 	.db #0x18	; 24
      000516 FF                    1384 	.db #0xff	; 255
      000517 18                    1385 	.db #0x18	; 24
      000518 FF                    1386 	.db #0xff	; 255
      000519 3C                    1387 	.db #0x3c	; 60
      00051A FF                    1388 	.db #0xff	; 255
      00051B 66                    1389 	.db #0x66	; 102	'f'
      00051C FF                    1390 	.db #0xff	; 255
      00051D 6E                    1391 	.db #0x6e	; 110	'n'
      00051E FF                    1392 	.db #0xff	; 255
      00051F 1C                    1393 	.db #0x1c	; 28
      000520 FF                    1394 	.db #0xff	; 255
      000521 38                    1395 	.db #0x38	; 56	'8'
      000522 FF                    1396 	.db #0xff	; 255
      000523 70                    1397 	.db #0x70	; 112	'p'
      000524 FF                    1398 	.db #0xff	; 255
      000525 7E                    1399 	.db #0x7e	; 126
      000526 FF                    1400 	.db #0xff	; 255
      000527 7E                    1401 	.db #0x7e	; 126
      000528 FF                    1402 	.db #0xff	; 255
      000529 7C                    1403 	.db #0x7c	; 124
      00052A FF                    1404 	.db #0xff	; 255
      00052B 7E                    1405 	.db #0x7e	; 126
      00052C FF                    1406 	.db #0xff	; 255
      00052D 06                    1407 	.db #0x06	; 6
      00052E FF                    1408 	.db #0xff	; 255
      00052F 3E                    1409 	.db #0x3e	; 62
      000530 FF                    1410 	.db #0xff	; 255
      000531 3E                    1411 	.db #0x3e	; 62
      000532 FF                    1412 	.db #0xff	; 255
      000533 06                    1413 	.db #0x06	; 6
      000534 FF                    1414 	.db #0xff	; 255
      000535 7E                    1415 	.db #0x7e	; 126
      000536 FF                    1416 	.db #0xff	; 255
      000537 7C                    1417 	.db #0x7c	; 124
      000538 FF                    1418 	.db #0xff	; 255
      000539 0C                    1419 	.db #0x0c	; 12
      00053A FF                    1420 	.db #0xff	; 255
      00053B 1C                    1421 	.db #0x1c	; 28
      00053C FF                    1422 	.db #0xff	; 255
      00053D 3C                    1423 	.db #0x3c	; 60
      00053E FF                    1424 	.db #0xff	; 255
      00053F 6C                    1425 	.db #0x6c	; 108	'l'
      000540 FF                    1426 	.db #0xff	; 255
      000541 6E                    1427 	.db #0x6e	; 110	'n'
      000542 FF                    1428 	.db #0xff	; 255
      000543 7E                    1429 	.db #0x7e	; 126
      000544 FF                    1430 	.db #0xff	; 255
      000545 0C                    1431 	.db #0x0c	; 12
      000546 FF                    1432 	.db #0xff	; 255
      000547 0C                    1433 	.db #0x0c	; 12
      000548 FF                    1434 	.db #0xff	; 255
      000549 7C                    1435 	.db #0x7c	; 124
      00054A FF                    1436 	.db #0xff	; 255
      00054B 7C                    1437 	.db #0x7c	; 124
      00054C FF                    1438 	.db #0xff	; 255
      00054D 60                    1439 	.db #0x60	; 96
      00054E FF                    1440 	.db #0xff	; 255
      00054F 7C                    1441 	.db #0x7c	; 124
      000550 FF                    1442 	.db #0xff	; 255
      000551 06                    1443 	.db #0x06	; 6
      000552 FF                    1444 	.db #0xff	; 255
      000553 06                    1445 	.db #0x06	; 6
      000554 FF                    1446 	.db #0xff	; 255
      000555 7E                    1447 	.db #0x7e	; 126
      000556 FF                    1448 	.db #0xff	; 255
      000557 7C                    1449 	.db #0x7c	; 124
      000558 3C                    1450 	.db #0x3c	; 60
      000559 3C                    1451 	.db #0x3c	; 60
      00055A 62                    1452 	.db #0x62	; 98	'b'
      00055B 62                    1453 	.db #0x62	; 98	'b'
      00055C 60                    1454 	.db #0x60	; 96
      00055D 60                    1455 	.db #0x60	; 96
      00055E 7C                    1456 	.db #0x7c	; 124
      00055F 7C                    1457 	.db #0x7c	; 124
      000560 7E                    1458 	.db #0x7e	; 126
      000561 7E                    1459 	.db #0x7e	; 126
      000562 62                    1460 	.db #0x62	; 98	'b'
      000563 62                    1461 	.db #0x62	; 98	'b'
      000564 62                    1462 	.db #0x62	; 98	'b'
      000565 62                    1463 	.db #0x62	; 98	'b'
      000566 3C                    1464 	.db #0x3c	; 60
      000567 3C                    1465 	.db #0x3c	; 60
      000568 7E                    1466 	.db #0x7e	; 126
      000569 7E                    1467 	.db #0x7e	; 126
      00056A 06                    1468 	.db #0x06	; 6
      00056B 06                    1469 	.db #0x06	; 6
      00056C 06                    1470 	.db #0x06	; 6
      00056D 06                    1471 	.db #0x06	; 6
      00056E 0C                    1472 	.db #0x0c	; 12
      00056F 0C                    1473 	.db #0x0c	; 12
      000570 18                    1474 	.db #0x18	; 24
      000571 18                    1475 	.db #0x18	; 24
      000572 18                    1476 	.db #0x18	; 24
      000573 18                    1477 	.db #0x18	; 24
      000574 18                    1478 	.db #0x18	; 24
      000575 18                    1479 	.db #0x18	; 24
      000576 18                    1480 	.db #0x18	; 24
      000577 18                    1481 	.db #0x18	; 24
      000578 3C                    1482 	.db #0x3c	; 60
      000579 3C                    1483 	.db #0x3c	; 60
      00057A 66                    1484 	.db #0x66	; 102	'f'
      00057B 66                    1485 	.db #0x66	; 102	'f'
      00057C 66                    1486 	.db #0x66	; 102	'f'
      00057D 66                    1487 	.db #0x66	; 102	'f'
      00057E 3C                    1488 	.db #0x3c	; 60
      00057F 3C                    1489 	.db #0x3c	; 60
      000580 7E                    1490 	.db #0x7e	; 126
      000581 7E                    1491 	.db #0x7e	; 126
      000582 66                    1492 	.db #0x66	; 102	'f'
      000583 66                    1493 	.db #0x66	; 102	'f'
      000584 66                    1494 	.db #0x66	; 102	'f'
      000585 66                    1495 	.db #0x66	; 102	'f'
      000586 3C                    1496 	.db #0x3c	; 60
      000587 3C                    1497 	.db #0x3c	; 60
      000588 3C                    1498 	.db #0x3c	; 60
      000589 3C                    1499 	.db #0x3c	; 60
      00058A 7E                    1500 	.db #0x7e	; 126
      00058B 7E                    1501 	.db #0x7e	; 126
      00058C 46                    1502 	.db #0x46	; 70	'F'
      00058D 46                    1503 	.db #0x46	; 70	'F'
      00058E 46                    1504 	.db #0x46	; 70	'F'
      00058F 46                    1505 	.db #0x46	; 70	'F'
      000590 3E                    1506 	.db #0x3e	; 62
      000591 3E                    1507 	.db #0x3e	; 62
      000592 06                    1508 	.db #0x06	; 6
      000593 06                    1509 	.db #0x06	; 6
      000594 46                    1510 	.db #0x46	; 70	'F'
      000595 46                    1511 	.db #0x46	; 70	'F'
      000596 3C                    1512 	.db #0x3c	; 60
      000597 3C                    1513 	.db #0x3c	; 60
      000598 3C                    1514 	.db #0x3c	; 60
      000599 3C                    1515 	.db #0x3c	; 60
      00059A 66                    1516 	.db #0x66	; 102	'f'
      00059B 66                    1517 	.db #0x66	; 102	'f'
      00059C 66                    1518 	.db #0x66	; 102	'f'
      00059D 66                    1519 	.db #0x66	; 102	'f'
      00059E 7E                    1520 	.db #0x7e	; 126
      00059F 7E                    1521 	.db #0x7e	; 126
      0005A0 7E                    1522 	.db #0x7e	; 126
      0005A1 7E                    1523 	.db #0x7e	; 126
      0005A2 66                    1524 	.db #0x66	; 102	'f'
      0005A3 66                    1525 	.db #0x66	; 102	'f'
      0005A4 66                    1526 	.db #0x66	; 102	'f'
      0005A5 66                    1527 	.db #0x66	; 102	'f'
      0005A6 66                    1528 	.db #0x66	; 102	'f'
      0005A7 66                    1529 	.db #0x66	; 102	'f'
      0005A8 7E                    1530 	.db #0x7e	; 126
      0005A9 7E                    1531 	.db #0x7e	; 126
      0005AA 7F                    1532 	.db #0x7f	; 127
      0005AB 7F                    1533 	.db #0x7f	; 127
      0005AC 41                    1534 	.db #0x41	; 65	'A'
      0005AD 41                    1535 	.db #0x41	; 65	'A'
      0005AE 7E                    1536 	.db #0x7e	; 126
      0005AF 7E                    1537 	.db #0x7e	; 126
      0005B0 7F                    1538 	.db #0x7f	; 127
      0005B1 7F                    1539 	.db #0x7f	; 127
      0005B2 41                    1540 	.db #0x41	; 65	'A'
      0005B3 41                    1541 	.db #0x41	; 65	'A'
      0005B4 7F                    1542 	.db #0x7f	; 127
      0005B5 7F                    1543 	.db #0x7f	; 127
      0005B6 7E                    1544 	.db #0x7e	; 126
      0005B7 7E                    1545 	.db #0x7e	; 126
      0005B8 3C                    1546 	.db #0x3c	; 60
      0005B9 3C                    1547 	.db #0x3c	; 60
      0005BA 7E                    1548 	.db #0x7e	; 126
      0005BB 7E                    1549 	.db #0x7e	; 126
      0005BC C2                    1550 	.db #0xc2	; 194
      0005BD C2                    1551 	.db #0xc2	; 194
      0005BE C0                    1552 	.db #0xc0	; 192
      0005BF C0                    1553 	.db #0xc0	; 192
      0005C0 C0                    1554 	.db #0xc0	; 192
      0005C1 C0                    1555 	.db #0xc0	; 192
      0005C2 C2                    1556 	.db #0xc2	; 194
      0005C3 C2                    1557 	.db #0xc2	; 194
      0005C4 7E                    1558 	.db #0x7e	; 126
      0005C5 7E                    1559 	.db #0x7e	; 126
      0005C6 3C                    1560 	.db #0x3c	; 60
      0005C7 3C                    1561 	.db #0x3c	; 60
      0005C8 7E                    1562 	.db #0x7e	; 126
      0005C9 7E                    1563 	.db #0x7e	; 126
      0005CA 7F                    1564 	.db #0x7f	; 127
      0005CB 7F                    1565 	.db #0x7f	; 127
      0005CC 63                    1566 	.db #0x63	; 99	'c'
      0005CD 63                    1567 	.db #0x63	; 99	'c'
      0005CE 63                    1568 	.db #0x63	; 99	'c'
      0005CF 63                    1569 	.db #0x63	; 99	'c'
      0005D0 63                    1570 	.db #0x63	; 99	'c'
      0005D1 63                    1571 	.db #0x63	; 99	'c'
      0005D2 63                    1572 	.db #0x63	; 99	'c'
      0005D3 63                    1573 	.db #0x63	; 99	'c'
      0005D4 7F                    1574 	.db #0x7f	; 127
      0005D5 7F                    1575 	.db #0x7f	; 127
      0005D6 7E                    1576 	.db #0x7e	; 126
      0005D7 7E                    1577 	.db #0x7e	; 126
      0005D8 36                    1578 	.db #0x36	; 54	'6'
      0005D9 36                    1579 	.db #0x36	; 54	'6'
      0005DA 7F                    1580 	.db #0x7f	; 127
      0005DB 7F                    1581 	.db #0x7f	; 127
      0005DC 7F                    1582 	.db #0x7f	; 127
      0005DD 7F                    1583 	.db #0x7f	; 127
      0005DE 36                    1584 	.db #0x36	; 54	'6'
      0005DF 36                    1585 	.db #0x36	; 54	'6'
      0005E0 7F                    1586 	.db #0x7f	; 127
      0005E1 7F                    1587 	.db #0x7f	; 127
      0005E2 7F                    1588 	.db #0x7f	; 127
      0005E3 7F                    1589 	.db #0x7f	; 127
      0005E4 36                    1590 	.db #0x36	; 54	'6'
      0005E5 36                    1591 	.db #0x36	; 54	'6'
      0005E6 36                    1592 	.db #0x36	; 54	'6'
      0005E7 36                    1593 	.db #0x36	; 54	'6'
      0005E8 C3                    1594 	.db #0xc3	; 195
      0005E9 C3                    1595 	.db #0xc3	; 195
      0005EA 66                    1596 	.db #0x66	; 102	'f'
      0005EB 66                    1597 	.db #0x66	; 102	'f'
      0005EC 3C                    1598 	.db #0x3c	; 60
      0005ED 3C                    1599 	.db #0x3c	; 60
      0005EE FF                    1600 	.db #0xff	; 255
      0005EF FF                    1601 	.db #0xff	; 255
      0005F0 FF                    1602 	.db #0xff	; 255
      0005F1 FF                    1603 	.db #0xff	; 255
      0005F2 3C                    1604 	.db #0x3c	; 60
      0005F3 3C                    1605 	.db #0x3c	; 60
      0005F4 66                    1606 	.db #0x66	; 102	'f'
      0005F5 66                    1607 	.db #0x66	; 102	'f'
      0005F6 C3                    1608 	.db #0xc3	; 195
      0005F7 C3                    1609 	.db #0xc3	; 195
      0005F8 F0                    1610 	.db #0xf0	; 240
      0005F9 F0                    1611 	.db #0xf0	; 240
      0005FA 90                    1612 	.db #0x90	; 144
      0005FB 90                    1613 	.db #0x90	; 144
      0005FC F0                    1614 	.db #0xf0	; 240
      0005FD F0                    1615 	.db #0xf0	; 240
      0005FE 90                    1616 	.db #0x90	; 144
      0005FF 90                    1617 	.db #0x90	; 144
      000600 97                    1618 	.db #0x97	; 151
      000601 97                    1619 	.db #0x97	; 151
      000602 08                    1620 	.db #0x08	; 8
      000603 08                    1621 	.db #0x08	; 8
      000604 08                    1622 	.db #0x08	; 8
      000605 08                    1623 	.db #0x08	; 8
      000606 07                    1624 	.db #0x07	; 7
      000607 07                    1625 	.db #0x07	; 7
      000608 0C                    1626 	.db #0x0c	; 12
      000609 0C                    1627 	.db #0x0c	; 12
      00060A 1C                    1628 	.db #0x1c	; 28
      00060B 1C                    1629 	.db #0x1c	; 28
      00060C 3C                    1630 	.db #0x3c	; 60
      00060D 3C                    1631 	.db #0x3c	; 60
      00060E 7C                    1632 	.db #0x7c	; 124
      00060F 7C                    1633 	.db #0x7c	; 124
      000610 7C                    1634 	.db #0x7c	; 124
      000611 7C                    1635 	.db #0x7c	; 124
      000612 3C                    1636 	.db #0x3c	; 60
      000613 3C                    1637 	.db #0x3c	; 60
      000614 1C                    1638 	.db #0x1c	; 28
      000615 1C                    1639 	.db #0x1c	; 28
      000616 0C                    1640 	.db #0x0c	; 12
      000617 0C                    1641 	.db #0x0c	; 12
      000618 00                    1642 	.db #0x00	; 0
      000619 00                    1643 	.db #0x00	; 0
      00061A 18                    1644 	.db #0x18	; 24
      00061B 18                    1645 	.db #0x18	; 24
      00061C 3C                    1646 	.db #0x3c	; 60
      00061D 3C                    1647 	.db #0x3c	; 60
      00061E 3C                    1648 	.db #0x3c	; 60
      00061F 3C                    1649 	.db #0x3c	; 60
      000620 1C                    1650 	.db #0x1c	; 28
      000621 1C                    1651 	.db #0x1c	; 28
      000622 0C                    1652 	.db #0x0c	; 12
      000623 0C                    1653 	.db #0x0c	; 12
      000624 38                    1654 	.db #0x38	; 56	'8'
      000625 38                    1655 	.db #0x38	; 56	'8'
      000626 00                    1656 	.db #0x00	; 0
      000627 00                    1657 	.db #0x00	; 0
      000628 3C                    1658 	.db #0x3c	; 60
      000629 3C                    1659 	.db #0x3c	; 60
      00062A 42                    1660 	.db #0x42	; 66	'B'
      00062B 42                    1661 	.db #0x42	; 66	'B'
      00062C 02                    1662 	.db #0x02	; 2
      00062D 02                    1663 	.db #0x02	; 2
      00062E 1C                    1664 	.db #0x1c	; 28
      00062F 1C                    1665 	.db #0x1c	; 28
      000630 18                    1666 	.db #0x18	; 24
      000631 18                    1667 	.db #0x18	; 24
      000632 00                    1668 	.db #0x00	; 0
      000633 00                    1669 	.db #0x00	; 0
      000634 18                    1670 	.db #0x18	; 24
      000635 18                    1671 	.db #0x18	; 24
      000636 18                    1672 	.db #0x18	; 24
      000637 18                    1673 	.db #0x18	; 24
      000638 00                    1674 	.db #0x00	; 0
      000639 00                    1675 	.db #0x00	; 0
      00063A 18                    1676 	.db #0x18	; 24
      00063B 18                    1677 	.db #0x18	; 24
      00063C 3C                    1678 	.db #0x3c	; 60
      00063D 3C                    1679 	.db #0x3c	; 60
      00063E 7E                    1680 	.db #0x7e	; 126
      00063F 7E                    1681 	.db #0x7e	; 126
      000640 FF                    1682 	.db #0xff	; 255
      000641 FF                    1683 	.db #0xff	; 255
      000642 FF                    1684 	.db #0xff	; 255
      000643 FF                    1685 	.db #0xff	; 255
      000644 00                    1686 	.db #0x00	; 0
      000645 00                    1687 	.db #0x00	; 0
      000646 00                    1688 	.db #0x00	; 0
      000647 00                    1689 	.db #0x00	; 0
      000648 00                    1690 	.db #0x00	; 0
      000649 00                    1691 	.db #0x00	; 0
      00064A 00                    1692 	.db #0x00	; 0
      00064B 00                    1693 	.db #0x00	; 0
      00064C FF                    1694 	.db #0xff	; 255
      00064D FF                    1695 	.db #0xff	; 255
      00064E FF                    1696 	.db #0xff	; 255
      00064F FF                    1697 	.db #0xff	; 255
      000650 7E                    1698 	.db #0x7e	; 126
      000651 7E                    1699 	.db #0x7e	; 126
      000652 3C                    1700 	.db #0x3c	; 60
      000653 3C                    1701 	.db #0x3c	; 60
      000654 18                    1702 	.db #0x18	; 24
      000655 18                    1703 	.db #0x18	; 24
      000656 00                    1704 	.db #0x00	; 0
      000657 00                    1705 	.db #0x00	; 0
      000658 12                    1706 	.db #0x12	; 18
      000659 12                    1707 	.db #0x12	; 18
      00065A 34                    1708 	.db #0x34	; 52	'4'
      00065B 34                    1709 	.db #0x34	; 52	'4'
      00065C F1                    1710 	.db #0xf1	; 241
      00065D F1                    1711 	.db #0xf1	; 241
      00065E F2                    1712 	.db #0xf2	; 242
      00065F F2                    1713 	.db #0xf2	; 242
      000660 F2                    1714 	.db #0xf2	; 242
      000661 F2                    1715 	.db #0xf2	; 242
      000662 F1                    1716 	.db #0xf1	; 241
      000663 F1                    1717 	.db #0xf1	; 241
      000664 34                    1718 	.db #0x34	; 52	'4'
      000665 34                    1719 	.db #0x34	; 52	'4'
      000666 12                    1720 	.db #0x12	; 18
      000667 12                    1721 	.db #0x12	; 18
      000668                       1722 _cursor_data:
      000668 06                    1723 	.db #0x06	; 6
      000669 06                    1724 	.db #0x06	; 6
      00066A 09                    1725 	.db #0x09	; 9
      00066B 09                    1726 	.db #0x09	; 9
      00066C 09                    1727 	.db #0x09	; 9
      00066D 09                    1728 	.db #0x09	; 9
      00066E 09                    1729 	.db #0x09	; 9
      00066F 0F                    1730 	.db #0x0f	; 15
      000670 09                    1731 	.db #0x09	; 9
      000671 0F                    1732 	.db #0x0f	; 15
      000672 69                    1733 	.db #0x69	; 105	'i'
      000673 6F                    1734 	.db #0x6f	; 111	'o'
      000674 19                    1735 	.db #0x19	; 25
      000675 3F                    1736 	.db #0x3f	; 63
      000676 59                    1737 	.db #0x59	; 89	'Y'
      000677 7F                    1738 	.db #0x7f	; 127
      000678 49                    1739 	.db #0x49	; 73	'I'
      000679 7F                    1740 	.db #0x7f	; 127
      00067A 49                    1741 	.db #0x49	; 73	'I'
      00067B 7F                    1742 	.db #0x7f	; 127
      00067C 40                    1743 	.db #0x40	; 64
      00067D 7F                    1744 	.db #0x7f	; 127
      00067E 40                    1745 	.db #0x40	; 64
      00067F 7F                    1746 	.db #0x7f	; 127
      000680 20                    1747 	.db #0x20	; 32
      000681 3F                    1748 	.db #0x3f	; 63
      000682 10                    1749 	.db #0x10	; 16
      000683 1F                    1750 	.db #0x1f	; 31
      000684 08                    1751 	.db #0x08	; 8
      000685 0F                    1752 	.db #0x0f	; 15
      000686 0F                    1753 	.db #0x0f	; 15
      000687 0F                    1754 	.db #0x0f	; 15
      000688 00                    1755 	.db #0x00	; 0
      000689 00                    1756 	.db #0x00	; 0
      00068A 00                    1757 	.db #0x00	; 0
      00068B 00                    1758 	.db #0x00	; 0
      00068C 00                    1759 	.db #0x00	; 0
      00068D 00                    1760 	.db #0x00	; 0
      00068E 00                    1761 	.db #0x00	; 0
      00068F 00                    1762 	.db #0x00	; 0
      000690 00                    1763 	.db #0x00	; 0
      000691 00                    1764 	.db #0x00	; 0
      000692 00                    1765 	.db #0x00	; 0
      000693 00                    1766 	.db #0x00	; 0
      000694 A8                    1767 	.db #0xa8	; 168
      000695 A8                    1768 	.db #0xa8	; 168
      000696 54                    1769 	.db #0x54	; 84	'T'
      000697 FC                    1770 	.db #0xfc	; 252
      000698 54                    1771 	.db #0x54	; 84	'T'
      000699 FC                    1772 	.db #0xfc	; 252
      00069A 54                    1773 	.db #0x54	; 84	'T'
      00069B FC                    1774 	.db #0xfc	; 252
      00069C 04                    1775 	.db #0x04	; 4
      00069D FC                    1776 	.db #0xfc	; 252
      00069E 04                    1777 	.db #0x04	; 4
      00069F FC                    1778 	.db #0xfc	; 252
      0006A0 08                    1779 	.db #0x08	; 8
      0006A1 F8                    1780 	.db #0xf8	; 248
      0006A2 10                    1781 	.db #0x10	; 16
      0006A3 F0                    1782 	.db #0xf0	; 240
      0006A4 20                    1783 	.db #0x20	; 32
      0006A5 E0                    1784 	.db #0xe0	; 224
      0006A6 E0                    1785 	.db #0xe0	; 224
      0006A7 E0                    1786 	.db #0xe0	; 224
      0006A8 00                    1787 	.db #0x00	; 0
      0006A9 00                    1788 	.db #0x00	; 0
      0006AA 06                    1789 	.db #0x06	; 6
      0006AB 06                    1790 	.db #0x06	; 6
      0006AC 09                    1791 	.db #0x09	; 9
      0006AD 09                    1792 	.db #0x09	; 9
      0006AE 09                    1793 	.db #0x09	; 9
      0006AF 0F                    1794 	.db #0x0f	; 15
      0006B0 09                    1795 	.db #0x09	; 9
      0006B1 0F                    1796 	.db #0x0f	; 15
      0006B2 69                    1797 	.db #0x69	; 105	'i'
      0006B3 6F                    1798 	.db #0x6f	; 111	'o'
      0006B4 19                    1799 	.db #0x19	; 25
      0006B5 3F                    1800 	.db #0x3f	; 63
      0006B6 59                    1801 	.db #0x59	; 89	'Y'
      0006B7 7F                    1802 	.db #0x7f	; 127
      0006B8 49                    1803 	.db #0x49	; 73	'I'
      0006B9 7F                    1804 	.db #0x7f	; 127
      0006BA 49                    1805 	.db #0x49	; 73	'I'
      0006BB 7F                    1806 	.db #0x7f	; 127
      0006BC 40                    1807 	.db #0x40	; 64
      0006BD 7F                    1808 	.db #0x7f	; 127
      0006BE 40                    1809 	.db #0x40	; 64
      0006BF 7F                    1810 	.db #0x7f	; 127
      0006C0 20                    1811 	.db #0x20	; 32
      0006C1 3F                    1812 	.db #0x3f	; 63
      0006C2 10                    1813 	.db #0x10	; 16
      0006C3 1F                    1814 	.db #0x1f	; 31
      0006C4 08                    1815 	.db #0x08	; 8
      0006C5 0F                    1816 	.db #0x0f	; 15
      0006C6 0F                    1817 	.db #0x0f	; 15
      0006C7 0F                    1818 	.db #0x0f	; 15
      0006C8 00                    1819 	.db #0x00	; 0
      0006C9 00                    1820 	.db #0x00	; 0
      0006CA 00                    1821 	.db #0x00	; 0
      0006CB 00                    1822 	.db #0x00	; 0
      0006CC 00                    1823 	.db #0x00	; 0
      0006CD 00                    1824 	.db #0x00	; 0
      0006CE 00                    1825 	.db #0x00	; 0
      0006CF 00                    1826 	.db #0x00	; 0
      0006D0 00                    1827 	.db #0x00	; 0
      0006D1 00                    1828 	.db #0x00	; 0
      0006D2 00                    1829 	.db #0x00	; 0
      0006D3 00                    1830 	.db #0x00	; 0
      0006D4 A8                    1831 	.db #0xa8	; 168
      0006D5 A8                    1832 	.db #0xa8	; 168
      0006D6 54                    1833 	.db #0x54	; 84	'T'
      0006D7 FC                    1834 	.db #0xfc	; 252
      0006D8 54                    1835 	.db #0x54	; 84	'T'
      0006D9 FC                    1836 	.db #0xfc	; 252
      0006DA 54                    1837 	.db #0x54	; 84	'T'
      0006DB FC                    1838 	.db #0xfc	; 252
      0006DC 04                    1839 	.db #0x04	; 4
      0006DD FC                    1840 	.db #0xfc	; 252
      0006DE 04                    1841 	.db #0x04	; 4
      0006DF FC                    1842 	.db #0xfc	; 252
      0006E0 08                    1843 	.db #0x08	; 8
      0006E1 F8                    1844 	.db #0xf8	; 248
      0006E2 10                    1845 	.db #0x10	; 16
      0006E3 F0                    1846 	.db #0xf0	; 240
      0006E4 20                    1847 	.db #0x20	; 32
      0006E5 E0                    1848 	.db #0xe0	; 224
      0006E6 E0                    1849 	.db #0xe0	; 224
      0006E7 E0                    1850 	.db #0xe0	; 224
      0006E8                       1851 _row:
      0006E8 44                    1852 	.db #0x44	; 68	'D'
      0006E9 56                    1853 	.db #0x56	; 86	'V'
      0006EA 66                    1854 	.db #0x66	; 102	'f'
      0006EB 75                    1855 	.db #0x75	; 117	'u'
      0006EC                       1856 _col:
      0006EC 94                    1857 	.db #0x94	; 148
      0006ED 9E                    1858 	.db #0x9e	; 158
      0006EE A7                    1859 	.db #0xa7	; 167
      0006EF B0                    1860 	.db #0xb0	; 176
      0006F0                       1861 _dtmf_tile:
      0006F0 04                    1862 	.db #0x04	; 4
      0006F1 04                    1863 	.db #0x04	; 4
      0006F2 04                    1864 	.db #0x04	; 4
      0006F3 04                    1865 	.db #0x04	; 4
      0006F4 04                    1866 	.db #0x04	; 4
      0006F5 04                    1867 	.db #0x04	; 4
      0006F6 04                    1868 	.db #0x04	; 4
      0006F7 04                    1869 	.db #0x04	; 4
      0006F8 04                    1870 	.db #0x04	; 4
      0006F9 04                    1871 	.db #0x04	; 4
      0006FA 04                    1872 	.db #0x04	; 4
      0006FB 04                    1873 	.db #0x04	; 4
      0006FC 04                    1874 	.db #0x04	; 4
      0006FD 04                    1875 	.db #0x04	; 4
      0006FE 04                    1876 	.db #0x04	; 4
      0006FF 04                    1877 	.db #0x04	; 4
      000700 04                    1878 	.db #0x04	; 4
      000701 04                    1879 	.db #0x04	; 4
      000702 04                    1880 	.db #0x04	; 4
      000703 04                    1881 	.db #0x04	; 4
      000704 00                    1882 	.db #0x00	; 0
      000705 01                    1883 	.db #0x01	; 1
      000706 01                    1884 	.db #0x01	; 1
      000707 01                    1885 	.db #0x01	; 1
      000708 01                    1886 	.db #0x01	; 1
      000709 01                    1887 	.db #0x01	; 1
      00070A 01                    1888 	.db #0x01	; 1
      00070B 01                    1889 	.db #0x01	; 1
      00070C 01                    1890 	.db #0x01	; 1
      00070D 01                    1891 	.db #0x01	; 1
      00070E 01                    1892 	.db #0x01	; 1
      00070F 01                    1893 	.db #0x01	; 1
      000710 01                    1894 	.db #0x01	; 1
      000711 01                    1895 	.db #0x01	; 1
      000712 01                    1896 	.db #0x01	; 1
      000713 01                    1897 	.db #0x01	; 1
      000714 01                    1898 	.db #0x01	; 1
      000715 01                    1899 	.db #0x01	; 1
      000716 01                    1900 	.db #0x01	; 1
      000717 02                    1901 	.db #0x02	; 2
      000718 03                    1902 	.db #0x03	; 3
      000719 04                    1903 	.db #0x04	; 4
      00071A 04                    1904 	.db #0x04	; 4
      00071B 04                    1905 	.db #0x04	; 4
      00071C 04                    1906 	.db #0x04	; 4
      00071D 04                    1907 	.db #0x04	; 4
      00071E 04                    1908 	.db #0x04	; 4
      00071F 04                    1909 	.db #0x04	; 4
      000720 04                    1910 	.db #0x04	; 4
      000721 04                    1911 	.db #0x04	; 4
      000722 04                    1912 	.db #0x04	; 4
      000723 04                    1913 	.db #0x04	; 4
      000724 04                    1914 	.db #0x04	; 4
      000725 04                    1915 	.db #0x04	; 4
      000726 04                    1916 	.db #0x04	; 4
      000727 04                    1917 	.db #0x04	; 4
      000728 04                    1918 	.db #0x04	; 4
      000729 04                    1919 	.db #0x04	; 4
      00072A 04                    1920 	.db #0x04	; 4
      00072B 05                    1921 	.db #0x05	; 5
      00072C 03                    1922 	.db #0x03	; 3
      00072D 04                    1923 	.db #0x04	; 4
      00072E 04                    1924 	.db #0x04	; 4
      00072F 04                    1925 	.db #0x04	; 4
      000730 04                    1926 	.db #0x04	; 4
      000731 04                    1927 	.db #0x04	; 4
      000732 04                    1928 	.db #0x04	; 4
      000733 04                    1929 	.db #0x04	; 4
      000734 04                    1930 	.db #0x04	; 4
      000735 04                    1931 	.db #0x04	; 4
      000736 04                    1932 	.db #0x04	; 4
      000737 04                    1933 	.db #0x04	; 4
      000738 04                    1934 	.db #0x04	; 4
      000739 04                    1935 	.db #0x04	; 4
      00073A 04                    1936 	.db #0x04	; 4
      00073B 04                    1937 	.db #0x04	; 4
      00073C 04                    1938 	.db #0x04	; 4
      00073D 04                    1939 	.db #0x04	; 4
      00073E 04                    1940 	.db #0x04	; 4
      00073F 05                    1941 	.db #0x05	; 5
      000740 06                    1942 	.db #0x06	; 6
      000741 07                    1943 	.db #0x07	; 7
      000742 07                    1944 	.db #0x07	; 7
      000743 07                    1945 	.db #0x07	; 7
      000744 07                    1946 	.db #0x07	; 7
      000745 07                    1947 	.db #0x07	; 7
      000746 07                    1948 	.db #0x07	; 7
      000747 07                    1949 	.db #0x07	; 7
      000748 07                    1950 	.db #0x07	; 7
      000749 07                    1951 	.db #0x07	; 7
      00074A 07                    1952 	.db #0x07	; 7
      00074B 07                    1953 	.db #0x07	; 7
      00074C 07                    1954 	.db #0x07	; 7
      00074D 07                    1955 	.db #0x07	; 7
      00074E 07                    1956 	.db #0x07	; 7
      00074F 07                    1957 	.db #0x07	; 7
      000750 07                    1958 	.db #0x07	; 7
      000751 07                    1959 	.db #0x07	; 7
      000752 07                    1960 	.db #0x07	; 7
      000753 08                    1961 	.db #0x08	; 8
      000754 04                    1962 	.db #0x04	; 4
      000755 09                    1963 	.db #0x09	; 9
      000756 0A                    1964 	.db #0x0a	; 10
      000757 0B                    1965 	.db #0x0b	; 11
      000758 09                    1966 	.db #0x09	; 9
      000759 0A                    1967 	.db #0x0a	; 10
      00075A 0B                    1968 	.db #0x0b	; 11
      00075B 09                    1969 	.db #0x09	; 9
      00075C 0A                    1970 	.db #0x0a	; 10
      00075D 0B                    1971 	.db #0x0b	; 11
      00075E 09                    1972 	.db #0x09	; 9
      00075F 0A                    1973 	.db #0x0a	; 10
      000760 0B                    1974 	.db #0x0b	; 11
      000761 04                    1975 	.db #0x04	; 4
      000762 09                    1976 	.db #0x09	; 9
      000763 0A                    1977 	.db #0x0a	; 10
      000764 0B                    1978 	.db #0x0b	; 11
      000765 09                    1979 	.db #0x09	; 9
      000766 0A                    1980 	.db #0x0a	; 10
      000767 0B                    1981 	.db #0x0b	; 11
      000768 04                    1982 	.db #0x04	; 4
      000769 0C                    1983 	.db #0x0c	; 12
      00076A 0D                    1984 	.db #0x0d	; 13
      00076B 0E                    1985 	.db #0x0e	; 14
      00076C 0C                    1986 	.db #0x0c	; 12
      00076D 0D                    1987 	.db #0x0d	; 13
      00076E 0E                    1988 	.db #0x0e	; 14
      00076F 0C                    1989 	.db #0x0c	; 12
      000770 0D                    1990 	.db #0x0d	; 13
      000771 0E                    1991 	.db #0x0e	; 14
      000772 0C                    1992 	.db #0x0c	; 12
      000773 0D                    1993 	.db #0x0d	; 13
      000774 0E                    1994 	.db #0x0e	; 14
      000775 04                    1995 	.db #0x04	; 4
      000776 0C                    1996 	.db #0x0c	; 12
      000777 0D                    1997 	.db #0x0d	; 13
      000778 0E                    1998 	.db #0x0e	; 14
      000779 0C                    1999 	.db #0x0c	; 12
      00077A 0D                    2000 	.db #0x0d	; 13
      00077B 0E                    2001 	.db #0x0e	; 14
      00077C 04                    2002 	.db #0x04	; 4
      00077D 0F                    2003 	.db #0x0f	; 15
      00077E 10                    2004 	.db #0x10	; 16
      00077F 11                    2005 	.db #0x11	; 17
      000780 0F                    2006 	.db #0x0f	; 15
      000781 10                    2007 	.db #0x10	; 16
      000782 11                    2008 	.db #0x11	; 17
      000783 0F                    2009 	.db #0x0f	; 15
      000784 10                    2010 	.db #0x10	; 16
      000785 11                    2011 	.db #0x11	; 17
      000786 0F                    2012 	.db #0x0f	; 15
      000787 10                    2013 	.db #0x10	; 16
      000788 11                    2014 	.db #0x11	; 17
      000789 04                    2015 	.db #0x04	; 4
      00078A 0F                    2016 	.db #0x0f	; 15
      00078B 10                    2017 	.db #0x10	; 16
      00078C 11                    2018 	.db #0x11	; 17
      00078D 0F                    2019 	.db #0x0f	; 15
      00078E 10                    2020 	.db #0x10	; 16
      00078F 11                    2021 	.db #0x11	; 17
      000790 04                    2022 	.db #0x04	; 4
      000791 09                    2023 	.db #0x09	; 9
      000792 0A                    2024 	.db #0x0a	; 10
      000793 0B                    2025 	.db #0x0b	; 11
      000794 09                    2026 	.db #0x09	; 9
      000795 0A                    2027 	.db #0x0a	; 10
      000796 0B                    2028 	.db #0x0b	; 11
      000797 09                    2029 	.db #0x09	; 9
      000798 0A                    2030 	.db #0x0a	; 10
      000799 0B                    2031 	.db #0x0b	; 11
      00079A 09                    2032 	.db #0x09	; 9
      00079B 0A                    2033 	.db #0x0a	; 10
      00079C 0B                    2034 	.db #0x0b	; 11
      00079D 04                    2035 	.db #0x04	; 4
      00079E 09                    2036 	.db #0x09	; 9
      00079F 0A                    2037 	.db #0x0a	; 10
      0007A0 0B                    2038 	.db #0x0b	; 11
      0007A1 09                    2039 	.db #0x09	; 9
      0007A2 0A                    2040 	.db #0x0a	; 10
      0007A3 0B                    2041 	.db #0x0b	; 11
      0007A4 04                    2042 	.db #0x04	; 4
      0007A5 0C                    2043 	.db #0x0c	; 12
      0007A6 0D                    2044 	.db #0x0d	; 13
      0007A7 0E                    2045 	.db #0x0e	; 14
      0007A8 0C                    2046 	.db #0x0c	; 12
      0007A9 0D                    2047 	.db #0x0d	; 13
      0007AA 0E                    2048 	.db #0x0e	; 14
      0007AB 0C                    2049 	.db #0x0c	; 12
      0007AC 0D                    2050 	.db #0x0d	; 13
      0007AD 0E                    2051 	.db #0x0e	; 14
      0007AE 0C                    2052 	.db #0x0c	; 12
      0007AF 0D                    2053 	.db #0x0d	; 13
      0007B0 0E                    2054 	.db #0x0e	; 14
      0007B1 04                    2055 	.db #0x04	; 4
      0007B2 0C                    2056 	.db #0x0c	; 12
      0007B3 0D                    2057 	.db #0x0d	; 13
      0007B4 0E                    2058 	.db #0x0e	; 14
      0007B5 0C                    2059 	.db #0x0c	; 12
      0007B6 0D                    2060 	.db #0x0d	; 13
      0007B7 0E                    2061 	.db #0x0e	; 14
      0007B8 04                    2062 	.db #0x04	; 4
      0007B9 0F                    2063 	.db #0x0f	; 15
      0007BA 10                    2064 	.db #0x10	; 16
      0007BB 11                    2065 	.db #0x11	; 17
      0007BC 0F                    2066 	.db #0x0f	; 15
      0007BD 10                    2067 	.db #0x10	; 16
      0007BE 11                    2068 	.db #0x11	; 17
      0007BF 0F                    2069 	.db #0x0f	; 15
      0007C0 10                    2070 	.db #0x10	; 16
      0007C1 11                    2071 	.db #0x11	; 17
      0007C2 0F                    2072 	.db #0x0f	; 15
      0007C3 10                    2073 	.db #0x10	; 16
      0007C4 11                    2074 	.db #0x11	; 17
      0007C5 04                    2075 	.db #0x04	; 4
      0007C6 0F                    2076 	.db #0x0f	; 15
      0007C7 10                    2077 	.db #0x10	; 16
      0007C8 11                    2078 	.db #0x11	; 17
      0007C9 0F                    2079 	.db #0x0f	; 15
      0007CA 10                    2080 	.db #0x10	; 16
      0007CB 11                    2081 	.db #0x11	; 17
      0007CC 04                    2082 	.db #0x04	; 4
      0007CD 09                    2083 	.db #0x09	; 9
      0007CE 0A                    2084 	.db #0x0a	; 10
      0007CF 0B                    2085 	.db #0x0b	; 11
      0007D0 09                    2086 	.db #0x09	; 9
      0007D1 0A                    2087 	.db #0x0a	; 10
      0007D2 0B                    2088 	.db #0x0b	; 11
      0007D3 09                    2089 	.db #0x09	; 9
      0007D4 0A                    2090 	.db #0x0a	; 10
      0007D5 0B                    2091 	.db #0x0b	; 11
      0007D6 09                    2092 	.db #0x09	; 9
      0007D7 0A                    2093 	.db #0x0a	; 10
      0007D8 0B                    2094 	.db #0x0b	; 11
      0007D9 04                    2095 	.db #0x04	; 4
      0007DA 09                    2096 	.db #0x09	; 9
      0007DB 0A                    2097 	.db #0x0a	; 10
      0007DC 0B                    2098 	.db #0x0b	; 11
      0007DD 09                    2099 	.db #0x09	; 9
      0007DE 0A                    2100 	.db #0x0a	; 10
      0007DF 0B                    2101 	.db #0x0b	; 11
      0007E0 04                    2102 	.db #0x04	; 4
      0007E1 0C                    2103 	.db #0x0c	; 12
      0007E2 0D                    2104 	.db #0x0d	; 13
      0007E3 0E                    2105 	.db #0x0e	; 14
      0007E4 0C                    2106 	.db #0x0c	; 12
      0007E5 0D                    2107 	.db #0x0d	; 13
      0007E6 0E                    2108 	.db #0x0e	; 14
      0007E7 0C                    2109 	.db #0x0c	; 12
      0007E8 0D                    2110 	.db #0x0d	; 13
      0007E9 0E                    2111 	.db #0x0e	; 14
      0007EA 0C                    2112 	.db #0x0c	; 12
      0007EB 0D                    2113 	.db #0x0d	; 13
      0007EC 0E                    2114 	.db #0x0e	; 14
      0007ED 04                    2115 	.db #0x04	; 4
      0007EE 0C                    2116 	.db #0x0c	; 12
      0007EF 0D                    2117 	.db #0x0d	; 13
      0007F0 0E                    2118 	.db #0x0e	; 14
      0007F1 0C                    2119 	.db #0x0c	; 12
      0007F2 0D                    2120 	.db #0x0d	; 13
      0007F3 0E                    2121 	.db #0x0e	; 14
      0007F4 04                    2122 	.db #0x04	; 4
      0007F5 0F                    2123 	.db #0x0f	; 15
      0007F6 10                    2124 	.db #0x10	; 16
      0007F7 11                    2125 	.db #0x11	; 17
      0007F8 0F                    2126 	.db #0x0f	; 15
      0007F9 10                    2127 	.db #0x10	; 16
      0007FA 11                    2128 	.db #0x11	; 17
      0007FB 0F                    2129 	.db #0x0f	; 15
      0007FC 10                    2130 	.db #0x10	; 16
      0007FD 11                    2131 	.db #0x11	; 17
      0007FE 0F                    2132 	.db #0x0f	; 15
      0007FF 10                    2133 	.db #0x10	; 16
      000800 11                    2134 	.db #0x11	; 17
      000801 04                    2135 	.db #0x04	; 4
      000802 0F                    2136 	.db #0x0f	; 15
      000803 10                    2137 	.db #0x10	; 16
      000804 11                    2138 	.db #0x11	; 17
      000805 0F                    2139 	.db #0x0f	; 15
      000806 10                    2140 	.db #0x10	; 16
      000807 11                    2141 	.db #0x11	; 17
      000808 04                    2142 	.db #0x04	; 4
      000809 09                    2143 	.db #0x09	; 9
      00080A 0A                    2144 	.db #0x0a	; 10
      00080B 0B                    2145 	.db #0x0b	; 11
      00080C 09                    2146 	.db #0x09	; 9
      00080D 0A                    2147 	.db #0x0a	; 10
      00080E 0B                    2148 	.db #0x0b	; 11
      00080F 09                    2149 	.db #0x09	; 9
      000810 0A                    2150 	.db #0x0a	; 10
      000811 0B                    2151 	.db #0x0b	; 11
      000812 09                    2152 	.db #0x09	; 9
      000813 0A                    2153 	.db #0x0a	; 10
      000814 0B                    2154 	.db #0x0b	; 11
      000815 04                    2155 	.db #0x04	; 4
      000816 09                    2156 	.db #0x09	; 9
      000817 0A                    2157 	.db #0x0a	; 10
      000818 0A                    2158 	.db #0x0a	; 10
      000819 0A                    2159 	.db #0x0a	; 10
      00081A 0A                    2160 	.db #0x0a	; 10
      00081B 0B                    2161 	.db #0x0b	; 11
      00081C 04                    2162 	.db #0x04	; 4
      00081D 0C                    2163 	.db #0x0c	; 12
      00081E 0D                    2164 	.db #0x0d	; 13
      00081F 0E                    2165 	.db #0x0e	; 14
      000820 0C                    2166 	.db #0x0c	; 12
      000821 0D                    2167 	.db #0x0d	; 13
      000822 0E                    2168 	.db #0x0e	; 14
      000823 0C                    2169 	.db #0x0c	; 12
      000824 0D                    2170 	.db #0x0d	; 13
      000825 0E                    2171 	.db #0x0e	; 14
      000826 0C                    2172 	.db #0x0c	; 12
      000827 0D                    2173 	.db #0x0d	; 13
      000828 0E                    2174 	.db #0x0e	; 14
      000829 04                    2175 	.db #0x04	; 4
      00082A 0C                    2176 	.db #0x0c	; 12
      00082B 0D                    2177 	.db #0x0d	; 13
      00082C 0D                    2178 	.db #0x0d	; 13
      00082D 0D                    2179 	.db #0x0d	; 13
      00082E 0D                    2180 	.db #0x0d	; 13
      00082F 0E                    2181 	.db #0x0e	; 14
      000830 04                    2182 	.db #0x04	; 4
      000831 0F                    2183 	.db #0x0f	; 15
      000832 10                    2184 	.db #0x10	; 16
      000833 11                    2185 	.db #0x11	; 17
      000834 0F                    2186 	.db #0x0f	; 15
      000835 10                    2187 	.db #0x10	; 16
      000836 11                    2188 	.db #0x11	; 17
      000837 0F                    2189 	.db #0x0f	; 15
      000838 10                    2190 	.db #0x10	; 16
      000839 11                    2191 	.db #0x11	; 17
      00083A 0F                    2192 	.db #0x0f	; 15
      00083B 10                    2193 	.db #0x10	; 16
      00083C 11                    2194 	.db #0x11	; 17
      00083D 04                    2195 	.db #0x04	; 4
      00083E 0F                    2196 	.db #0x0f	; 15
      00083F 10                    2197 	.db #0x10	; 16
      000840 10                    2198 	.db #0x10	; 16
      000841 10                    2199 	.db #0x10	; 16
      000842 10                    2200 	.db #0x10	; 16
      000843 11                    2201 	.db #0x11	; 17
      000844 04                    2202 	.db #0x04	; 4
      000845 04                    2203 	.db #0x04	; 4
      000846 04                    2204 	.db #0x04	; 4
      000847 04                    2205 	.db #0x04	; 4
      000848 04                    2206 	.db #0x04	; 4
      000849 04                    2207 	.db #0x04	; 4
      00084A 04                    2208 	.db #0x04	; 4
      00084B 04                    2209 	.db #0x04	; 4
      00084C 04                    2210 	.db #0x04	; 4
      00084D 04                    2211 	.db #0x04	; 4
      00084E 04                    2212 	.db #0x04	; 4
      00084F 04                    2213 	.db #0x04	; 4
      000850 04                    2214 	.db #0x04	; 4
      000851 04                    2215 	.db #0x04	; 4
      000852 04                    2216 	.db #0x04	; 4
      000853 04                    2217 	.db #0x04	; 4
      000854 04                    2218 	.db #0x04	; 4
      000855 04                    2219 	.db #0x04	; 4
      000856 04                    2220 	.db #0x04	; 4
      000857 04                    2221 	.db #0x04	; 4
      000858                       2222 _break_tile:
      000858 09                    2223 	.db #0x09	; 9
      000859 0A                    2224 	.db #0x0a	; 10
      00085A 0B                    2225 	.db #0x0b	; 11
      00085B 0C                    2226 	.db #0x0c	; 12
      00085C 0D                    2227 	.db #0x0d	; 13
      00085D 0E                    2228 	.db #0x0e	; 14
      00085E 0F                    2229 	.db #0x0f	; 15
      00085F 10                    2230 	.db #0x10	; 16
      000860 11                    2231 	.db #0x11	; 17
      000861                       2232 _dialing_break:
      000861 09                    2233 	.db #0x09	; 9
      000862 0A                    2234 	.db #0x0a	; 10
      000863 0A                    2235 	.db #0x0a	; 10
      000864 0A                    2236 	.db #0x0a	; 10
      000865 0A                    2237 	.db #0x0a	; 10
      000866 0B                    2238 	.db #0x0b	; 11
      000867 0C                    2239 	.db #0x0c	; 12
      000868 0D                    2240 	.db #0x0d	; 13
      000869 0D                    2241 	.db #0x0d	; 13
      00086A 0D                    2242 	.db #0x0d	; 13
      00086B 0D                    2243 	.db #0x0d	; 13
      00086C 0E                    2244 	.db #0x0e	; 14
      00086D 0F                    2245 	.db #0x0f	; 15
      00086E 10                    2246 	.db #0x10	; 16
      00086F 10                    2247 	.db #0x10	; 16
      000870 10                    2248 	.db #0x10	; 16
      000871 10                    2249 	.db #0x10	; 16
      000872 11                    2250 	.db #0x11	; 17
      000873                       2251 _press_tile:
      000873 12                    2252 	.db #0x12	; 18
      000874 13                    2253 	.db #0x13	; 19
      000875 14                    2254 	.db #0x14	; 20
      000876 15                    2255 	.db #0x15	; 21
      000877 16                    2256 	.db #0x16	; 22
      000878 17                    2257 	.db #0x17	; 23
      000879 18                    2258 	.db #0x18	; 24
      00087A 19                    2259 	.db #0x19	; 25
      00087B 1A                    2260 	.db #0x1a	; 26
      00087C                       2261 _dialing_press:
      00087C 12                    2262 	.db #0x12	; 18
      00087D 13                    2263 	.db #0x13	; 19
      00087E 13                    2264 	.db #0x13	; 19
      00087F 13                    2265 	.db #0x13	; 19
      000880 13                    2266 	.db #0x13	; 19
      000881 14                    2267 	.db #0x14	; 20
      000882 15                    2268 	.db #0x15	; 21
      000883 16                    2269 	.db #0x16	; 22
      000884 16                    2270 	.db #0x16	; 22
      000885 16                    2271 	.db #0x16	; 22
      000886 16                    2272 	.db #0x16	; 22
      000887 17                    2273 	.db #0x17	; 23
      000888 18                    2274 	.db #0x18	; 24
      000889 19                    2275 	.db #0x19	; 25
      00088A 19                    2276 	.db #0x19	; 25
      00088B 19                    2277 	.db #0x19	; 25
      00088C 19                    2278 	.db #0x19	; 25
      00088D 1A                    2279 	.db #0x1a	; 26
      00088E                       2280 _init_disp:
      00088E 3B                    2281 	.db #0x3b	; 59
      00088F 3B                    2282 	.db #0x3b	; 59
      000890 3B                    2283 	.db #0x3b	; 59
      000891 3B                    2284 	.db #0x3b	; 59
      000892 3B                    2285 	.db #0x3b	; 59
      000893 3B                    2286 	.db #0x3b	; 59
      000894 3B                    2287 	.db #0x3b	; 59
      000895 3B                    2288 	.db #0x3b	; 59
      000896 3B                    2289 	.db #0x3b	; 59
      000897 3B                    2290 	.db #0x3b	; 59
      000898 3B                    2291 	.db #0x3b	; 59
      000899 3B                    2292 	.db #0x3b	; 59
      00089A 3B                    2293 	.db #0x3b	; 59
      00089B 3B                    2294 	.db #0x3b	; 59
      00089C 3B                    2295 	.db #0x3b	; 59
      00089D 3B                    2296 	.db #0x3b	; 59
      00089E 3B                    2297 	.db #0x3b	; 59
      00089F 3B                    2298 	.db #0x3b	; 59
      0008A0 3C                    2299 	.db #0x3c	; 60
      0008A1 3C                    2300 	.db #0x3c	; 60
      0008A2 3C                    2301 	.db #0x3c	; 60
      0008A3 3C                    2302 	.db #0x3c	; 60
      0008A4 3C                    2303 	.db #0x3c	; 60
      0008A5 3C                    2304 	.db #0x3c	; 60
      0008A6 3C                    2305 	.db #0x3c	; 60
      0008A7 3C                    2306 	.db #0x3c	; 60
      0008A8 3C                    2307 	.db #0x3c	; 60
      0008A9 3C                    2308 	.db #0x3c	; 60
      0008AA 3C                    2309 	.db #0x3c	; 60
      0008AB 3C                    2310 	.db #0x3c	; 60
      0008AC 3C                    2311 	.db #0x3c	; 60
      0008AD 3C                    2312 	.db #0x3c	; 60
      0008AE 3C                    2313 	.db #0x3c	; 60
      0008AF 3C                    2314 	.db #0x3c	; 60
      0008B0 3C                    2315 	.db #0x3c	; 60
      0008B1 3C                    2316 	.db #0x3c	; 60
      0008B2                       2317 _pad:
      0008B2 31                    2318 	.db #0x31	;  49	'1'
      0008B3 32                    2319 	.db #0x32	;  50	'2'
      0008B4 33                    2320 	.db #0x33	;  51	'3'
      0008B5 41                    2321 	.db #0x41	;  65	'A'
      0008B6 25                    2322 	.db #0x25	;  37
      0008B7 50                    2323 	.db #0x50	;  80	'P'
      0008B8 34                    2324 	.db #0x34	;  52	'4'
      0008B9 35                    2325 	.db #0x35	;  53	'5'
      0008BA 36                    2326 	.db #0x36	;  54	'6'
      0008BB 42                    2327 	.db #0x42	;  66	'B'
      0008BC 2D                    2328 	.db #0x2d	;  45
      0008BD 46                    2329 	.db #0x46	;  70	'F'
      0008BE 37                    2330 	.db #0x37	;  55	'7'
      0008BF 38                    2331 	.db #0x38	;  56	'8'
      0008C0 39                    2332 	.db #0x39	;  57	'9'
      0008C1 43                    2333 	.db #0x43	;  67	'C'
      0008C2 2C                    2334 	.db #0x2c	;  44
      0008C3 3F                    2335 	.db #0x3f	;  63
      0008C4 2A                    2336 	.db #0x2a	;  42
      0008C5 30                    2337 	.db #0x30	;  48	'0'
      0008C6 23                    2338 	.db #0x23	;  35
      0008C7 44                    2339 	.db #0x44	;  68	'D'
      0008C8 73                    2340 	.db #0x73	;  115	's'
      0008C9 73                    2341 	.db #0x73	;  115	's'
                                   2342 ;gb-dtmf.c:188: void dialtone(uint16_t dtmf_on, uint16_t dtmf_off, char str[20])
                                   2343 ;	---------------------------------
                                   2344 ; Function dialtone
                                   2345 ; ---------------------------------
      0008CA                       2346 _dialtone::
      0008CA E8 FF            [16] 2347 	add	sp, #-1
      0008CC D5               [16] 2348 	push	de
                                   2349 ;gb-dtmf.c:192: while(str[i]){
      0008CD F8 02            [12] 2350 	ldhl	sp,	#2
      0008CF 36 00            [12] 2351 	ld	(hl), #0x00
      0008D1                       2352 00125$:
      0008D1 F8 05            [12] 2353 	ldhl	sp,#5
      0008D3 2A               [ 8] 2354 	ld	a, (hl+)
      0008D4 5F               [ 4] 2355 	ld	e, a
      0008D5 56               [ 8] 2356 	ld	d, (hl)
      0008D6 F8 02            [12] 2357 	ldhl	sp,	#2
      0008D8 6E               [ 8] 2358 	ld	l, (hl)
      0008D9 26 00            [ 8] 2359 	ld	h, #0x00
      0008DB 19               [ 8] 2360 	add	hl, de
      0008DC 5D               [ 4] 2361 	ld	e, l
      0008DD 54               [ 4] 2362 	ld	d, h
      0008DE 1A               [ 8] 2363 	ld	a, (de)
      0008DF B7               [ 4] 2364 	or	a, a
      0008E0 CAr21r0A         [16] 2365 	jp	Z, 00128$
                                   2366 ;gb-dtmf.c:193: switch(str[i]){
      0008E3 FE 23            [ 8] 2367 	cp	a, #0x23
      0008E5 CArD5r09         [16] 2368 	jp	Z,00118$
      0008E8 FE 2A            [ 8] 2369 	cp	a, #0x2a
      0008EA CArC1r09         [16] 2370 	jp	Z,00116$
      0008ED FE 2C            [ 8] 2371 	cp	a, #0x2c
      0008EF CArE9r09         [16] 2372 	jp	Z,00121$
      0008F2 FE 30            [ 8] 2373 	cp	a, #0x30
      0008F4 CArCBr09         [16] 2374 	jp	Z,00117$
      0008F7 FE 31            [ 8] 2375 	cp	a, #0x31
      0008F9 28 49            [12] 2376 	jr	Z, 00101$
      0008FB FE 32            [ 8] 2377 	cp	a, #0x32
      0008FD 28 50            [12] 2378 	jr	Z, 00102$
      0008FF FE 33            [ 8] 2379 	cp	a, #0x33
      000901 28 57            [12] 2380 	jr	Z, 00103$
      000903 FE 34            [ 8] 2381 	cp	a, #0x34
      000905 28 69            [12] 2382 	jr	Z, 00106$
      000907 FE 35            [ 8] 2383 	cp	a, #0x35
      000909 28 70            [12] 2384 	jr	Z, 00107$
      00090B FE 36            [ 8] 2385 	cp	a, #0x36
      00090D 28 76            [12] 2386 	jr	Z, 00108$
      00090F FE 37            [ 8] 2387 	cp	a, #0x37
      000911 CAr99r09         [16] 2388 	jp	Z,00111$
      000914 FE 38            [ 8] 2389 	cp	a, #0x38
      000916 CArA3r09         [16] 2390 	jp	Z,00112$
      000919 FE 39            [ 8] 2391 	cp	a, #0x39
      00091B CArADr09         [16] 2392 	jp	Z,00113$
      00091E FE 41            [ 8] 2393 	cp	a, #0x41
      000920 28 43            [12] 2394 	jr	Z, 00105$
      000922 FE 42            [ 8] 2395 	cp	a, #0x42
      000924 28 69            [12] 2396 	jr	Z, 00110$
      000926 FE 43            [ 8] 2397 	cp	a, #0x43
      000928 CArB7r09         [16] 2398 	jp	Z,00115$
      00092B FE 44            [ 8] 2399 	cp	a, #0x44
      00092D CArDFr09         [16] 2400 	jp	Z,00120$
      000930 FE 61            [ 8] 2401 	cp	a, #0x61
      000932 28 31            [12] 2402 	jr	Z, 00105$
      000934 FE 62            [ 8] 2403 	cp	a, #0x62
      000936 28 57            [12] 2404 	jr	Z, 00110$
      000938 FE 63            [ 8] 2405 	cp	a, #0x63
      00093A 28 7B            [12] 2406 	jr	Z, 00115$
      00093C D6 64            [ 8] 2407 	sub	a, #0x64
      00093E CArDFr09         [16] 2408 	jp	Z,00120$
      000941 C3rFAr09         [16] 2409 	jp	00122$
                                   2410 ;gb-dtmf.c:194: case '1':
      000944                       2411 00101$:
                                   2412 ;gb-dtmf.c:195: NR13_REG = R1;
      000944 3E 44            [ 8] 2413 	ld	a, #0x44
      000946 E0r00            [12] 2414 	ldh	(_NR13_REG + 0), a
                                   2415 ;gb-dtmf.c:196: NR23_REG = C1;
      000948 3E 94            [ 8] 2416 	ld	a, #0x94
      00094A E0r00            [12] 2417 	ldh	(_NR23_REG + 0), a
                                   2418 ;gb-dtmf.c:197: break;
      00094C C3rFFr09         [16] 2419 	jp	00123$
                                   2420 ;gb-dtmf.c:198: case '2':
      00094F                       2421 00102$:
                                   2422 ;gb-dtmf.c:199: NR13_REG = R1;
      00094F 3E 44            [ 8] 2423 	ld	a, #0x44
      000951 E0r00            [12] 2424 	ldh	(_NR13_REG + 0), a
                                   2425 ;gb-dtmf.c:200: NR23_REG = C2;
      000953 3E 9E            [ 8] 2426 	ld	a, #0x9e
      000955 E0r00            [12] 2427 	ldh	(_NR23_REG + 0), a
                                   2428 ;gb-dtmf.c:201: break;
      000957 C3rFFr09         [16] 2429 	jp	00123$
                                   2430 ;gb-dtmf.c:202: case '3':
      00095A                       2431 00103$:
                                   2432 ;gb-dtmf.c:203: NR13_REG = R1;
      00095A 3E 44            [ 8] 2433 	ld	a, #0x44
      00095C E0r00            [12] 2434 	ldh	(_NR13_REG + 0), a
                                   2435 ;gb-dtmf.c:204: NR23_REG = C3;
      00095E 3E A7            [ 8] 2436 	ld	a, #0xa7
      000960 E0r00            [12] 2437 	ldh	(_NR23_REG + 0), a
                                   2438 ;gb-dtmf.c:205: break;
      000962 C3rFFr09         [16] 2439 	jp	00123$
                                   2440 ;gb-dtmf.c:207: case 'a':
      000965                       2441 00105$:
                                   2442 ;gb-dtmf.c:208: NR13_REG = R1;
      000965 3E 44            [ 8] 2443 	ld	a, #0x44
      000967 E0r00            [12] 2444 	ldh	(_NR13_REG + 0), a
                                   2445 ;gb-dtmf.c:209: NR23_REG = C4;
      000969 3E B0            [ 8] 2446 	ld	a, #0xb0
      00096B E0r00            [12] 2447 	ldh	(_NR23_REG + 0), a
                                   2448 ;gb-dtmf.c:210: break;
      00096D C3rFFr09         [16] 2449 	jp	00123$
                                   2450 ;gb-dtmf.c:211: case '4':
      000970                       2451 00106$:
                                   2452 ;gb-dtmf.c:212: NR13_REG = R2;
      000970 3E 56            [ 8] 2453 	ld	a, #0x56
      000972 E0r00            [12] 2454 	ldh	(_NR13_REG + 0), a
                                   2455 ;gb-dtmf.c:213: NR23_REG = C1;
      000974 3E 94            [ 8] 2456 	ld	a, #0x94
      000976 E0r00            [12] 2457 	ldh	(_NR23_REG + 0), a
                                   2458 ;gb-dtmf.c:214: break;
      000978 C3rFFr09         [16] 2459 	jp	00123$
                                   2460 ;gb-dtmf.c:215: case '5':
      00097B                       2461 00107$:
                                   2462 ;gb-dtmf.c:216: NR13_REG = R2;
      00097B 3E 56            [ 8] 2463 	ld	a, #0x56
      00097D E0r00            [12] 2464 	ldh	(_NR13_REG + 0), a
                                   2465 ;gb-dtmf.c:217: NR23_REG = C2;
      00097F 3E 9E            [ 8] 2466 	ld	a, #0x9e
      000981 E0r00            [12] 2467 	ldh	(_NR23_REG + 0), a
                                   2468 ;gb-dtmf.c:218: break;
      000983 18 7A            [12] 2469 	jr	00123$
                                   2470 ;gb-dtmf.c:219: case '6':
      000985                       2471 00108$:
                                   2472 ;gb-dtmf.c:220: NR13_REG = R2;
      000985 3E 56            [ 8] 2473 	ld	a, #0x56
      000987 E0r00            [12] 2474 	ldh	(_NR13_REG + 0), a
                                   2475 ;gb-dtmf.c:221: NR23_REG = C3;
      000989 3E A7            [ 8] 2476 	ld	a, #0xa7
      00098B E0r00            [12] 2477 	ldh	(_NR23_REG + 0), a
                                   2478 ;gb-dtmf.c:222: break;
      00098D 18 70            [12] 2479 	jr	00123$
                                   2480 ;gb-dtmf.c:224: case 'b':
      00098F                       2481 00110$:
                                   2482 ;gb-dtmf.c:225: NR13_REG = R2;
      00098F 3E 56            [ 8] 2483 	ld	a, #0x56
      000991 E0r00            [12] 2484 	ldh	(_NR13_REG + 0), a
                                   2485 ;gb-dtmf.c:226: NR23_REG = C4;
      000993 3E B0            [ 8] 2486 	ld	a, #0xb0
      000995 E0r00            [12] 2487 	ldh	(_NR23_REG + 0), a
                                   2488 ;gb-dtmf.c:227: break;
      000997 18 66            [12] 2489 	jr	00123$
                                   2490 ;gb-dtmf.c:228: case '7':
      000999                       2491 00111$:
                                   2492 ;gb-dtmf.c:229: NR13_REG = R3;
      000999 3E 66            [ 8] 2493 	ld	a, #0x66
      00099B E0r00            [12] 2494 	ldh	(_NR13_REG + 0), a
                                   2495 ;gb-dtmf.c:230: NR23_REG = C1;
      00099D 3E 94            [ 8] 2496 	ld	a, #0x94
      00099F E0r00            [12] 2497 	ldh	(_NR23_REG + 0), a
                                   2498 ;gb-dtmf.c:231: break;
      0009A1 18 5C            [12] 2499 	jr	00123$
                                   2500 ;gb-dtmf.c:232: case '8':
      0009A3                       2501 00112$:
                                   2502 ;gb-dtmf.c:233: NR13_REG = R3;
      0009A3 3E 66            [ 8] 2503 	ld	a, #0x66
      0009A5 E0r00            [12] 2504 	ldh	(_NR13_REG + 0), a
                                   2505 ;gb-dtmf.c:234: NR23_REG = C2;
      0009A7 3E 9E            [ 8] 2506 	ld	a, #0x9e
      0009A9 E0r00            [12] 2507 	ldh	(_NR23_REG + 0), a
                                   2508 ;gb-dtmf.c:235: break;
      0009AB 18 52            [12] 2509 	jr	00123$
                                   2510 ;gb-dtmf.c:236: case '9':
      0009AD                       2511 00113$:
                                   2512 ;gb-dtmf.c:237: NR13_REG = R3;
      0009AD 3E 66            [ 8] 2513 	ld	a, #0x66
      0009AF E0r00            [12] 2514 	ldh	(_NR13_REG + 0), a
                                   2515 ;gb-dtmf.c:238: NR23_REG = C3;
      0009B1 3E A7            [ 8] 2516 	ld	a, #0xa7
      0009B3 E0r00            [12] 2517 	ldh	(_NR23_REG + 0), a
                                   2518 ;gb-dtmf.c:239: break;
      0009B5 18 48            [12] 2519 	jr	00123$
                                   2520 ;gb-dtmf.c:241: case 'c':
      0009B7                       2521 00115$:
                                   2522 ;gb-dtmf.c:242: NR13_REG = R3;
      0009B7 3E 66            [ 8] 2523 	ld	a, #0x66
      0009B9 E0r00            [12] 2524 	ldh	(_NR13_REG + 0), a
                                   2525 ;gb-dtmf.c:243: NR23_REG = C4;
      0009BB 3E B0            [ 8] 2526 	ld	a, #0xb0
      0009BD E0r00            [12] 2527 	ldh	(_NR23_REG + 0), a
                                   2528 ;gb-dtmf.c:244: break;
      0009BF 18 3E            [12] 2529 	jr	00123$
                                   2530 ;gb-dtmf.c:245: case '*':
      0009C1                       2531 00116$:
                                   2532 ;gb-dtmf.c:246: NR13_REG = R4;
      0009C1 3E 75            [ 8] 2533 	ld	a, #0x75
      0009C3 E0r00            [12] 2534 	ldh	(_NR13_REG + 0), a
                                   2535 ;gb-dtmf.c:247: NR23_REG = C1;
      0009C5 3E 94            [ 8] 2536 	ld	a, #0x94
      0009C7 E0r00            [12] 2537 	ldh	(_NR23_REG + 0), a
                                   2538 ;gb-dtmf.c:248: break;
      0009C9 18 34            [12] 2539 	jr	00123$
                                   2540 ;gb-dtmf.c:249: case '0':
      0009CB                       2541 00117$:
                                   2542 ;gb-dtmf.c:250: NR13_REG = R4;
      0009CB 3E 75            [ 8] 2543 	ld	a, #0x75
      0009CD E0r00            [12] 2544 	ldh	(_NR13_REG + 0), a
                                   2545 ;gb-dtmf.c:251: NR23_REG = C2;
      0009CF 3E 9E            [ 8] 2546 	ld	a, #0x9e
      0009D1 E0r00            [12] 2547 	ldh	(_NR23_REG + 0), a
                                   2548 ;gb-dtmf.c:252: break;
      0009D3 18 2A            [12] 2549 	jr	00123$
                                   2550 ;gb-dtmf.c:253: case '#':
      0009D5                       2551 00118$:
                                   2552 ;gb-dtmf.c:254: NR13_REG = R4;
      0009D5 3E 75            [ 8] 2553 	ld	a, #0x75
      0009D7 E0r00            [12] 2554 	ldh	(_NR13_REG + 0), a
                                   2555 ;gb-dtmf.c:255: NR23_REG = C3;
      0009D9 3E A7            [ 8] 2556 	ld	a, #0xa7
      0009DB E0r00            [12] 2557 	ldh	(_NR23_REG + 0), a
                                   2558 ;gb-dtmf.c:256: break;
      0009DD 18 20            [12] 2559 	jr	00123$
                                   2560 ;gb-dtmf.c:258: case 'd':
      0009DF                       2561 00120$:
                                   2562 ;gb-dtmf.c:259: NR13_REG = R4;
      0009DF 3E 75            [ 8] 2563 	ld	a, #0x75
      0009E1 E0r00            [12] 2564 	ldh	(_NR13_REG + 0), a
                                   2565 ;gb-dtmf.c:260: NR23_REG = C4;
      0009E3 3E B0            [ 8] 2566 	ld	a, #0xb0
      0009E5 E0r00            [12] 2567 	ldh	(_NR23_REG + 0), a
                                   2568 ;gb-dtmf.c:261: break;
      0009E7 18 16            [12] 2569 	jr	00123$
                                   2570 ;gb-dtmf.c:262: case ',':
      0009E9                       2571 00121$:
                                   2572 ;gb-dtmf.c:263: delay(dtmf_on);	/* keep on */
      0009E9 C5               [16] 2573 	push	bc
      0009EA F8 02            [12] 2574 	ldhl	sp,	#2
      0009EC 2A               [ 8] 2575 	ld	a, (hl+)
      0009ED 5F               [ 4] 2576 	ld	e, a
      0009EE 56               [ 8] 2577 	ld	d, (hl)
      0009EF CDr00r00         [24] 2578 	call	_delay
      0009F2 C1               [12] 2579 	pop	bc
                                   2580 ;gb-dtmf.c:264: delay(dtmf_off);	/* keep off */
      0009F3 C5               [16] 2581 	push	bc
      0009F4 59               [ 4] 2582 	ld	e, c
      0009F5 50               [ 4] 2583 	ld	d, b
      0009F6 CDr00r00         [24] 2584 	call	_delay
      0009F9 C1               [12] 2585 	pop	bc
                                   2586 ;gb-dtmf.c:266: default:
      0009FA                       2587 00122$:
                                   2588 ;gb-dtmf.c:267: NR51_REG = 0x00U;	/* sound off */
      0009FA AF               [ 4] 2589 	xor	a, a
      0009FB E0r00            [12] 2590 	ldh	(_NR51_REG + 0), a
                                   2591 ;gb-dtmf.c:268: goto skip;
      0009FD 18 1C            [12] 2592 	jr	00124$
                                   2593 ;gb-dtmf.c:270: }
      0009FF                       2594 00123$:
                                   2595 ;gb-dtmf.c:271: NR24_REG = 0x87U;	/* ch2 tips */
      0009FF 3E 87            [ 8] 2596 	ld	a, #0x87
      000A01 E0r00            [12] 2597 	ldh	(_NR24_REG + 0), a
                                   2598 ;gb-dtmf.c:272: NR51_REG = 0x33U;	/* sound on */
      000A03 3E 33            [ 8] 2599 	ld	a, #0x33
      000A05 E0r00            [12] 2600 	ldh	(_NR51_REG + 0), a
                                   2601 ;gb-dtmf.c:273: delay(dtmf_on);		/* keep on */
      000A07 C5               [16] 2602 	push	bc
      000A08 F8 02            [12] 2603 	ldhl	sp,	#2
      000A0A 2A               [ 8] 2604 	ld	a, (hl+)
      000A0B 5F               [ 4] 2605 	ld	e, a
      000A0C 56               [ 8] 2606 	ld	d, (hl)
      000A0D CDr00r00         [24] 2607 	call	_delay
      000A10 C1               [12] 2608 	pop	bc
                                   2609 ;gb-dtmf.c:275: NR51_REG = 0x00U;	/* sound off */
      000A11 AF               [ 4] 2610 	xor	a, a
      000A12 E0r00            [12] 2611 	ldh	(_NR51_REG + 0), a
                                   2612 ;gb-dtmf.c:276: delay(dtmf_off);	/* keep off */
      000A14 C5               [16] 2613 	push	bc
      000A15 59               [ 4] 2614 	ld	e, c
      000A16 50               [ 4] 2615 	ld	d, b
      000A17 CDr00r00         [24] 2616 	call	_delay
      000A1A C1               [12] 2617 	pop	bc
                                   2618 ;gb-dtmf.c:278: skip:
      000A1B                       2619 00124$:
                                   2620 ;gb-dtmf.c:279: i++;
      000A1B F8 02            [12] 2621 	ldhl	sp,	#2
      000A1D 34               [12] 2622 	inc	(hl)
      000A1E C3rD1r08         [16] 2623 	jp	00125$
      000A21                       2624 00128$:
                                   2625 ;gb-dtmf.c:281: }
      000A21 E8 03            [16] 2626 	add	sp, #3
      000A23 E1               [12] 2627 	pop	hl
      000A24 F1               [12] 2628 	pop	af
      000A25 E9               [ 4] 2629 	jp	(hl)
                                   2630 ;gb-dtmf.c:285: void disp_lcd(uint8_t len, char str[MAX_DTMF])
                                   2631 ;	---------------------------------
                                   2632 ; Function disp_lcd
                                   2633 ; ---------------------------------
      000A26                       2634 _disp_lcd::
      000A26 E8 FA            [16] 2635 	add	sp, #-6
      000A28 F8 03            [12] 2636 	ldhl	sp,	#3
      000A2A 73               [ 8] 2637 	ld	(hl), e
      000A2B 23               [ 8] 2638 	inc	hl
      000A2C 72               [ 8] 2639 	ld	(hl), d
                                   2640 ;gb-dtmf.c:289: j = len;
      000A2D F8 00            [12] 2641 	ldhl	sp,	#0
      000A2F 77               [ 8] 2642 	ld	(hl), a
                                   2643 ;gb-dtmf.c:292: while(str[i]){
      000A30 F8 05            [12] 2644 	ldhl	sp,	#5
      000A32 36 00            [12] 2645 	ld	(hl), #0x00
      000A34                       2646 00121$:
      000A34 F8 03            [12] 2647 	ldhl	sp,#3
      000A36 2A               [ 8] 2648 	ld	a, (hl+)
      000A37 5F               [ 4] 2649 	ld	e, a
      000A38 2A               [ 8] 2650 	ld	a, (hl+)
      000A39 57               [ 4] 2651 	ld	d, a
      000A3A 6E               [ 8] 2652 	ld	l, (hl)
      000A3B 26 00            [ 8] 2653 	ld	h, #0x00
      000A3D 19               [ 8] 2654 	add	hl, de
      000A3E 4D               [ 4] 2655 	ld	c, l
      000A3F 44               [ 4] 2656 	ld	b, h
      000A40 0A               [ 8] 2657 	ld	a, (bc)
                                   2658 ;gb-dtmf.c:293: if(str[i] >= '0'||'9' <= str[i]){
      000A41 B7               [ 4] 2659 	or	a,a
      000A42 CArB7r0C         [16] 2660 	jp	Z,00124$
      000A45 EE 80            [ 8] 2661 	xor	a, #0x80
      000A47 D6 B0            [ 8] 2662 	sub	a, #0xb0
      000A49 38 32            [12] 2663 	jr	C, 00102$
                                   2664 ;gb-dtmf.c:294: disp_tile[i] = OFFSET + (str[i] - '0') * 2;
      000A4B 11r00r00         [12] 2665 	ld	de, #_disp_tile
      000A4E F8 05            [12] 2666 	ldhl	sp,	#5
      000A50 6E               [ 8] 2667 	ld	l, (hl)
      000A51 26 00            [ 8] 2668 	ld	h, #0x00
      000A53 19               [ 8] 2669 	add	hl, de
      000A54 4D               [ 4] 2670 	ld	c, l
      000A55 44               [ 4] 2671 	ld	b, h
      000A56 F8 03            [12] 2672 	ldhl	sp,#3
      000A58 2A               [ 8] 2673 	ld	a, (hl+)
      000A59 5F               [ 4] 2674 	ld	e, a
      000A5A 2A               [ 8] 2675 	ld	a, (hl+)
      000A5B 57               [ 4] 2676 	ld	d, a
      000A5C 6E               [ 8] 2677 	ld	l, (hl)
      000A5D 26 00            [ 8] 2678 	ld	h, #0x00
      000A5F 19               [ 8] 2679 	add	hl, de
      000A60 5D               [ 4] 2680 	ld	e, l
      000A61 54               [ 4] 2681 	ld	d, h
      000A62 1A               [ 8] 2682 	ld	a, (de)
      000A63 C6 D0            [ 8] 2683 	add	a, #0xd0
      000A65 87               [ 4] 2684 	add	a, a
      000A66 C6 1B            [ 8] 2685 	add	a, #0x1b
      000A68 02               [ 8] 2686 	ld	(bc), a
                                   2687 ;gb-dtmf.c:295: disp_tile[i+j] = OFFSET + (str[i] - '0') * 2 + 1;
      000A69 F8 05            [12] 2688 	ldhl	sp,	#5
      000A6B 7E               [ 8] 2689 	ld	a, (hl)
      000A6C F8 00            [12] 2690 	ldhl	sp,	#0
      000A6E 86               [ 8] 2691 	add	a, (hl)
      000A6F 4F               [ 4] 2692 	ld	c, a
      000A70 21r00r00         [12] 2693 	ld	hl, #_disp_tile
      000A73 06 00            [ 8] 2694 	ld	b, #0x00
      000A75 09               [ 8] 2695 	add	hl, bc
      000A76 1A               [ 8] 2696 	ld	a, (de)
      000A77 C6 D0            [ 8] 2697 	add	a, #0xd0
      000A79 87               [ 4] 2698 	add	a, a
      000A7A C6 1C            [ 8] 2699 	add	a, #0x1c
      000A7C 77               [ 8] 2700 	ld	(hl), a
      000A7D                       2701 00102$:
                                   2702 ;gb-dtmf.c:297: switch(str[i]){
      000A7D F8 03            [12] 2703 	ldhl	sp,#3
      000A7F 2A               [ 8] 2704 	ld	a, (hl+)
      000A80 5F               [ 4] 2705 	ld	e, a
      000A81 2A               [ 8] 2706 	ld	a, (hl+)
      000A82 57               [ 4] 2707 	ld	d, a
      000A83 6E               [ 8] 2708 	ld	l, (hl)
      000A84 26 00            [ 8] 2709 	ld	h, #0x00
      000A86 19               [ 8] 2710 	add	hl, de
      000A87 4D               [ 4] 2711 	ld	c, l
      000A88 44               [ 4] 2712 	ld	b, h
      000A89 0A               [ 8] 2713 	ld	a, (bc)
      000A8A FE 20            [ 8] 2714 	cp	a, #0x20
      000A8C CAr88r0B         [16] 2715 	jp	Z,00110$
      000A8F FE 23            [ 8] 2716 	cp	a, #0x23
      000A91 CAr4Er0B         [16] 2717 	jp	Z,00108$
      000A94 FE 2A            [ 8] 2718 	cp	a, #0x2a
      000A96 CAr6Br0B         [16] 2719 	jp	Z,00109$
      000A99 FE 2C            [ 8] 2720 	cp	a, #0x2c
      000A9B CAr5Er0C         [16] 2721 	jp	Z,00117$
      000A9E FE 2D            [ 8] 2722 	cp	a, #0x2d
      000AA0 CAr26r0C         [16] 2723 	jp	Z,00115$
      000AA3 FE 41            [ 8] 2724 	cp	a, #0x41
      000AA5 28 33            [12] 2725 	jr	Z, 00104$
      000AA7 FE 42            [ 8] 2726 	cp	a, #0x42
      000AA9 28 4C            [12] 2727 	jr	Z, 00105$
      000AAB FE 43            [ 8] 2728 	cp	a, #0x43
      000AAD 28 65            [12] 2729 	jr	Z, 00106$
      000AAF FE 44            [ 8] 2730 	cp	a, #0x44
      000AB1 CAr31r0B         [16] 2731 	jp	Z,00107$
      000AB4 FE 46            [ 8] 2732 	cp	a, #0x46
      000AB6 CAr7Ar0C         [16] 2733 	jp	Z,00118$
      000AB9 FE 47            [ 8] 2734 	cp	a, #0x47
      000ABB CAr09r0C         [16] 2735 	jp	Z,00114$
      000ABE FE 4D            [ 8] 2736 	cp	a, #0x4d
      000AC0 CArCFr0B         [16] 2737 	jp	Z,00112$
      000AC3 FE 53            [ 8] 2738 	cp	a, #0x53
      000AC5 CAr97r0C         [16] 2739 	jp	Z,00119$
      000AC8 FE 54            [ 8] 2740 	cp	a, #0x54
      000ACA CAr42r0C         [16] 2741 	jp	Z,00116$
      000ACD FE 55            [ 8] 2742 	cp	a, #0x55
      000ACF CArECr0B         [16] 2743 	jp	Z,00113$
      000AD2 D6 59            [ 8] 2744 	sub	a, #0x59
      000AD4 CArB2r0B         [16] 2745 	jp	Z,00111$
      000AD7 C3rB1r0C         [16] 2746 	jp	00120$
                                   2747 ;gb-dtmf.c:298: case 'A':
      000ADA                       2748 00104$:
                                   2749 ;gb-dtmf.c:299: disp_tile[i] = OFFSET + 10 * 2;
      000ADA 11r00r00         [12] 2750 	ld	de, #_disp_tile
      000ADD F8 05            [12] 2751 	ldhl	sp,	#5
      000ADF 6E               [ 8] 2752 	ld	l, (hl)
      000AE0 26 00            [ 8] 2753 	ld	h, #0x00
      000AE2 19               [ 8] 2754 	add	hl, de
      000AE3 36 2F            [12] 2755 	ld	(hl), #0x2f
                                   2756 ;gb-dtmf.c:300: disp_tile[i+j] = OFFSET + 10 * 2 + 1;
      000AE5 F8 05            [12] 2757 	ldhl	sp,	#5
      000AE7 7E               [ 8] 2758 	ld	a, (hl)
      000AE8 F8 00            [12] 2759 	ldhl	sp,	#0
      000AEA 86               [ 8] 2760 	add	a, (hl)
      000AEB 4F               [ 4] 2761 	ld	c, a
      000AEC 21r00r00         [12] 2762 	ld	hl, #_disp_tile
      000AEF 06 00            [ 8] 2763 	ld	b, #0x00
      000AF1 09               [ 8] 2764 	add	hl, bc
      000AF2 36 30            [12] 2765 	ld	(hl), #0x30
                                   2766 ;gb-dtmf.c:301: break;
      000AF4 C3rB1r0C         [16] 2767 	jp	00120$
                                   2768 ;gb-dtmf.c:302: case 'B':
      000AF7                       2769 00105$:
                                   2770 ;gb-dtmf.c:303: disp_tile[i] = OFFSET + 11 * 2;
      000AF7 11r00r00         [12] 2771 	ld	de, #_disp_tile
      000AFA F8 05            [12] 2772 	ldhl	sp,	#5
      000AFC 6E               [ 8] 2773 	ld	l, (hl)
      000AFD 26 00            [ 8] 2774 	ld	h, #0x00
      000AFF 19               [ 8] 2775 	add	hl, de
      000B00 36 31            [12] 2776 	ld	(hl), #0x31
                                   2777 ;gb-dtmf.c:304: disp_tile[i+j] = OFFSET + 11 * 2 + 1;
      000B02 F8 05            [12] 2778 	ldhl	sp,	#5
      000B04 7E               [ 8] 2779 	ld	a, (hl)
      000B05 F8 00            [12] 2780 	ldhl	sp,	#0
      000B07 86               [ 8] 2781 	add	a, (hl)
      000B08 4F               [ 4] 2782 	ld	c, a
      000B09 21r00r00         [12] 2783 	ld	hl, #_disp_tile
      000B0C 06 00            [ 8] 2784 	ld	b, #0x00
      000B0E 09               [ 8] 2785 	add	hl, bc
      000B0F 36 32            [12] 2786 	ld	(hl), #0x32
                                   2787 ;gb-dtmf.c:305: break;
      000B11 C3rB1r0C         [16] 2788 	jp	00120$
                                   2789 ;gb-dtmf.c:306: case 'C':
      000B14                       2790 00106$:
                                   2791 ;gb-dtmf.c:307: disp_tile[i] = OFFSET + 12 * 2;
      000B14 11r00r00         [12] 2792 	ld	de, #_disp_tile
      000B17 F8 05            [12] 2793 	ldhl	sp,	#5
      000B19 6E               [ 8] 2794 	ld	l, (hl)
      000B1A 26 00            [ 8] 2795 	ld	h, #0x00
      000B1C 19               [ 8] 2796 	add	hl, de
      000B1D 36 33            [12] 2797 	ld	(hl), #0x33
                                   2798 ;gb-dtmf.c:308: disp_tile[i+j] = OFFSET + 12 * 2 + 1;
      000B1F F8 05            [12] 2799 	ldhl	sp,	#5
      000B21 7E               [ 8] 2800 	ld	a, (hl)
      000B22 F8 00            [12] 2801 	ldhl	sp,	#0
      000B24 86               [ 8] 2802 	add	a, (hl)
      000B25 4F               [ 4] 2803 	ld	c, a
      000B26 21r00r00         [12] 2804 	ld	hl, #_disp_tile
      000B29 06 00            [ 8] 2805 	ld	b, #0x00
      000B2B 09               [ 8] 2806 	add	hl, bc
      000B2C 36 34            [12] 2807 	ld	(hl), #0x34
                                   2808 ;gb-dtmf.c:309: break;
      000B2E C3rB1r0C         [16] 2809 	jp	00120$
                                   2810 ;gb-dtmf.c:310: case 'D':
      000B31                       2811 00107$:
                                   2812 ;gb-dtmf.c:311: disp_tile[i] = OFFSET + 13 * 2;
      000B31 11r00r00         [12] 2813 	ld	de, #_disp_tile
      000B34 F8 05            [12] 2814 	ldhl	sp,	#5
      000B36 6E               [ 8] 2815 	ld	l, (hl)
      000B37 26 00            [ 8] 2816 	ld	h, #0x00
      000B39 19               [ 8] 2817 	add	hl, de
      000B3A 36 35            [12] 2818 	ld	(hl), #0x35
                                   2819 ;gb-dtmf.c:312: disp_tile[i+j] = OFFSET + 13 * 2 + 1;
      000B3C F8 05            [12] 2820 	ldhl	sp,	#5
      000B3E 7E               [ 8] 2821 	ld	a, (hl)
      000B3F F8 00            [12] 2822 	ldhl	sp,	#0
      000B41 86               [ 8] 2823 	add	a, (hl)
      000B42 4F               [ 4] 2824 	ld	c, a
      000B43 21r00r00         [12] 2825 	ld	hl, #_disp_tile
      000B46 06 00            [ 8] 2826 	ld	b, #0x00
      000B48 09               [ 8] 2827 	add	hl, bc
      000B49 36 36            [12] 2828 	ld	(hl), #0x36
                                   2829 ;gb-dtmf.c:313: break;
      000B4B C3rB1r0C         [16] 2830 	jp	00120$
                                   2831 ;gb-dtmf.c:314: case '#':
      000B4E                       2832 00108$:
                                   2833 ;gb-dtmf.c:315: disp_tile[i] = OFFSET + 14 * 2;
      000B4E 11r00r00         [12] 2834 	ld	de, #_disp_tile
      000B51 F8 05            [12] 2835 	ldhl	sp,	#5
      000B53 6E               [ 8] 2836 	ld	l, (hl)
      000B54 26 00            [ 8] 2837 	ld	h, #0x00
      000B56 19               [ 8] 2838 	add	hl, de
      000B57 36 37            [12] 2839 	ld	(hl), #0x37
                                   2840 ;gb-dtmf.c:316: disp_tile[i+j] = OFFSET + 14 * 2 + 1;
      000B59 F8 05            [12] 2841 	ldhl	sp,	#5
      000B5B 7E               [ 8] 2842 	ld	a, (hl)
      000B5C F8 00            [12] 2843 	ldhl	sp,	#0
      000B5E 86               [ 8] 2844 	add	a, (hl)
      000B5F 4F               [ 4] 2845 	ld	c, a
      000B60 21r00r00         [12] 2846 	ld	hl, #_disp_tile
      000B63 06 00            [ 8] 2847 	ld	b, #0x00
      000B65 09               [ 8] 2848 	add	hl, bc
      000B66 36 38            [12] 2849 	ld	(hl), #0x38
                                   2850 ;gb-dtmf.c:317: break;
      000B68 C3rB1r0C         [16] 2851 	jp	00120$
                                   2852 ;gb-dtmf.c:318: case '*':
      000B6B                       2853 00109$:
                                   2854 ;gb-dtmf.c:319: disp_tile[i] = OFFSET + 15 * 2;
      000B6B 11r00r00         [12] 2855 	ld	de, #_disp_tile
      000B6E F8 05            [12] 2856 	ldhl	sp,	#5
      000B70 6E               [ 8] 2857 	ld	l, (hl)
      000B71 26 00            [ 8] 2858 	ld	h, #0x00
      000B73 19               [ 8] 2859 	add	hl, de
      000B74 36 39            [12] 2860 	ld	(hl), #0x39
                                   2861 ;gb-dtmf.c:320: disp_tile[i+j] = OFFSET + 15 * 2 + 1;
      000B76 F8 05            [12] 2862 	ldhl	sp,	#5
      000B78 7E               [ 8] 2863 	ld	a, (hl)
      000B79 F8 00            [12] 2864 	ldhl	sp,	#0
      000B7B 86               [ 8] 2865 	add	a, (hl)
      000B7C 4F               [ 4] 2866 	ld	c, a
      000B7D 21r00r00         [12] 2867 	ld	hl, #_disp_tile
      000B80 06 00            [ 8] 2868 	ld	b, #0x00
      000B82 09               [ 8] 2869 	add	hl, bc
      000B83 36 3A            [12] 2870 	ld	(hl), #0x3a
                                   2871 ;gb-dtmf.c:321: break;
      000B85 C3rB1r0C         [16] 2872 	jp	00120$
                                   2873 ;gb-dtmf.c:322: case ' ':
      000B88                       2874 00110$:
                                   2875 ;gb-dtmf.c:323: disp_tile[i] = OFFSET + 16 * 2;
      000B88 11r00r00         [12] 2876 	ld	de, #_disp_tile
      000B8B F8 05            [12] 2877 	ldhl	sp,	#5
      000B8D 6E               [ 8] 2878 	ld	l, (hl)
      000B8E 26 00            [ 8] 2879 	ld	h, #0x00
      000B90 19               [ 8] 2880 	add	hl, de
      000B91 E5               [16] 2881 	push	hl
      000B92 7D               [ 4] 2882 	ld	a, l
      000B93 F8 03            [12] 2883 	ldhl	sp,	#3
      000B95 77               [ 8] 2884 	ld	(hl), a
      000B96 E1               [12] 2885 	pop	hl
      000B97 7C               [ 4] 2886 	ld	a, h
      000B98 F8 02            [12] 2887 	ldhl	sp,	#2
      000B9A 32               [ 8] 2888 	ld	(hl-), a
      000B9B 2A               [ 8] 2889 	ld	a,	(hl+)
      000B9C 66               [ 8] 2890 	ld	h, (hl)
      000B9D 6F               [ 4] 2891 	ld	l, a
      000B9E 36 3B            [12] 2892 	ld	(hl), #0x3b
                                   2893 ;gb-dtmf.c:324: disp_tile[i+j] = OFFSET + 16 * 2 + 1;
      000BA0 F8 05            [12] 2894 	ldhl	sp,	#5
      000BA2 7E               [ 8] 2895 	ld	a, (hl)
      000BA3 F8 00            [12] 2896 	ldhl	sp,	#0
      000BA5 86               [ 8] 2897 	add	a, (hl)
      000BA6 4F               [ 4] 2898 	ld	c, a
      000BA7 21r00r00         [12] 2899 	ld	hl, #_disp_tile
      000BAA 06 00            [ 8] 2900 	ld	b, #0x00
      000BAC 09               [ 8] 2901 	add	hl, bc
      000BAD 36 3C            [12] 2902 	ld	(hl), #0x3c
                                   2903 ;gb-dtmf.c:325: break;
      000BAF C3rB1r0C         [16] 2904 	jp	00120$
                                   2905 ;gb-dtmf.c:326: case 'Y':
      000BB2                       2906 00111$:
                                   2907 ;gb-dtmf.c:327: disp_tile[i] = OFFSET + 17 * 2;
      000BB2 11r00r00         [12] 2908 	ld	de, #_disp_tile
      000BB5 F8 05            [12] 2909 	ldhl	sp,	#5
      000BB7 6E               [ 8] 2910 	ld	l, (hl)
      000BB8 26 00            [ 8] 2911 	ld	h, #0x00
      000BBA 19               [ 8] 2912 	add	hl, de
      000BBB 36 3D            [12] 2913 	ld	(hl), #0x3d
                                   2914 ;gb-dtmf.c:328: disp_tile[i+j] = OFFSET + 17 * 2 + 1;
      000BBD F8 05            [12] 2915 	ldhl	sp,	#5
      000BBF 7E               [ 8] 2916 	ld	a, (hl)
      000BC0 F8 00            [12] 2917 	ldhl	sp,	#0
      000BC2 86               [ 8] 2918 	add	a, (hl)
      000BC3 4F               [ 4] 2919 	ld	c, a
      000BC4 21r00r00         [12] 2920 	ld	hl, #_disp_tile
      000BC7 06 00            [ 8] 2921 	ld	b, #0x00
      000BC9 09               [ 8] 2922 	add	hl, bc
      000BCA 36 3E            [12] 2923 	ld	(hl), #0x3e
                                   2924 ;gb-dtmf.c:329: break;
      000BCC C3rB1r0C         [16] 2925 	jp	00120$
                                   2926 ;gb-dtmf.c:330: case 'M':
      000BCF                       2927 00112$:
                                   2928 ;gb-dtmf.c:331: disp_tile[i] = OFFSET + 18 * 2;
      000BCF 11r00r00         [12] 2929 	ld	de, #_disp_tile
      000BD2 F8 05            [12] 2930 	ldhl	sp,	#5
      000BD4 6E               [ 8] 2931 	ld	l, (hl)
      000BD5 26 00            [ 8] 2932 	ld	h, #0x00
      000BD7 19               [ 8] 2933 	add	hl, de
      000BD8 36 3F            [12] 2934 	ld	(hl), #0x3f
                                   2935 ;gb-dtmf.c:332: disp_tile[i+j] = OFFSET + 18 * 2 + 1;
      000BDA F8 05            [12] 2936 	ldhl	sp,	#5
      000BDC 7E               [ 8] 2937 	ld	a, (hl)
      000BDD F8 00            [12] 2938 	ldhl	sp,	#0
      000BDF 86               [ 8] 2939 	add	a, (hl)
      000BE0 4F               [ 4] 2940 	ld	c, a
      000BE1 21r00r00         [12] 2941 	ld	hl, #_disp_tile
      000BE4 06 00            [ 8] 2942 	ld	b, #0x00
      000BE6 09               [ 8] 2943 	add	hl, bc
      000BE7 36 40            [12] 2944 	ld	(hl), #0x40
                                   2945 ;gb-dtmf.c:333: break;
      000BE9 C3rB1r0C         [16] 2946 	jp	00120$
                                   2947 ;gb-dtmf.c:334: case 'U':
      000BEC                       2948 00113$:
                                   2949 ;gb-dtmf.c:335: disp_tile[i] = OFFSET + 19 * 2;
      000BEC 11r00r00         [12] 2950 	ld	de, #_disp_tile
      000BEF F8 05            [12] 2951 	ldhl	sp,	#5
      000BF1 6E               [ 8] 2952 	ld	l, (hl)
      000BF2 26 00            [ 8] 2953 	ld	h, #0x00
      000BF4 19               [ 8] 2954 	add	hl, de
      000BF5 36 41            [12] 2955 	ld	(hl), #0x41
                                   2956 ;gb-dtmf.c:336: disp_tile[i+j] = OFFSET + 19 * 2 + 1;
      000BF7 F8 05            [12] 2957 	ldhl	sp,	#5
      000BF9 7E               [ 8] 2958 	ld	a, (hl)
      000BFA F8 00            [12] 2959 	ldhl	sp,	#0
      000BFC 86               [ 8] 2960 	add	a, (hl)
      000BFD 4F               [ 4] 2961 	ld	c, a
      000BFE 21r00r00         [12] 2962 	ld	hl, #_disp_tile
      000C01 06 00            [ 8] 2963 	ld	b, #0x00
      000C03 09               [ 8] 2964 	add	hl, bc
      000C04 36 42            [12] 2965 	ld	(hl), #0x42
                                   2966 ;gb-dtmf.c:337: break;
      000C06 C3rB1r0C         [16] 2967 	jp	00120$
                                   2968 ;gb-dtmf.c:338: case 'G':
      000C09                       2969 00114$:
                                   2970 ;gb-dtmf.c:339: disp_tile[i] = OFFSET + 20 * 2;
      000C09 11r00r00         [12] 2971 	ld	de, #_disp_tile
      000C0C F8 05            [12] 2972 	ldhl	sp,	#5
      000C0E 6E               [ 8] 2973 	ld	l, (hl)
      000C0F 26 00            [ 8] 2974 	ld	h, #0x00
      000C11 19               [ 8] 2975 	add	hl, de
      000C12 36 43            [12] 2976 	ld	(hl), #0x43
                                   2977 ;gb-dtmf.c:340: disp_tile[i+j] = OFFSET + 20 * 2 + 1;
      000C14 F8 05            [12] 2978 	ldhl	sp,	#5
      000C16 7E               [ 8] 2979 	ld	a, (hl)
      000C17 F8 00            [12] 2980 	ldhl	sp,	#0
      000C19 86               [ 8] 2981 	add	a, (hl)
      000C1A 4F               [ 4] 2982 	ld	c, a
      000C1B 21r00r00         [12] 2983 	ld	hl, #_disp_tile
      000C1E 06 00            [ 8] 2984 	ld	b, #0x00
      000C20 09               [ 8] 2985 	add	hl, bc
      000C21 36 44            [12] 2986 	ld	(hl), #0x44
                                   2987 ;gb-dtmf.c:341: break;
      000C23 C3rB1r0C         [16] 2988 	jp	00120$
                                   2989 ;gb-dtmf.c:342: case '-':
      000C26                       2990 00115$:
                                   2991 ;gb-dtmf.c:343: disp_tile[i] = OFFSET + 21 * 2;
      000C26 11r00r00         [12] 2992 	ld	de, #_disp_tile
      000C29 F8 05            [12] 2993 	ldhl	sp,	#5
      000C2B 6E               [ 8] 2994 	ld	l, (hl)
      000C2C 26 00            [ 8] 2995 	ld	h, #0x00
      000C2E 19               [ 8] 2996 	add	hl, de
      000C2F 36 45            [12] 2997 	ld	(hl), #0x45
                                   2998 ;gb-dtmf.c:344: disp_tile[i+j] = OFFSET + 21 * 2 + 1;
      000C31 F8 05            [12] 2999 	ldhl	sp,	#5
      000C33 7E               [ 8] 3000 	ld	a, (hl)
      000C34 F8 00            [12] 3001 	ldhl	sp,	#0
      000C36 86               [ 8] 3002 	add	a, (hl)
      000C37 4F               [ 4] 3003 	ld	c, a
      000C38 21r00r00         [12] 3004 	ld	hl, #_disp_tile
      000C3B 06 00            [ 8] 3005 	ld	b, #0x00
      000C3D 09               [ 8] 3006 	add	hl, bc
      000C3E 36 46            [12] 3007 	ld	(hl), #0x46
                                   3008 ;gb-dtmf.c:345: break;
      000C40 18 6F            [12] 3009 	jr	00120$
                                   3010 ;gb-dtmf.c:346: case 'T':
      000C42                       3011 00116$:
                                   3012 ;gb-dtmf.c:347: disp_tile[i] = OFFSET + 22 * 2;
      000C42 11r00r00         [12] 3013 	ld	de, #_disp_tile
      000C45 F8 05            [12] 3014 	ldhl	sp,	#5
      000C47 6E               [ 8] 3015 	ld	l, (hl)
      000C48 26 00            [ 8] 3016 	ld	h, #0x00
      000C4A 19               [ 8] 3017 	add	hl, de
      000C4B 36 47            [12] 3018 	ld	(hl), #0x47
                                   3019 ;gb-dtmf.c:348: disp_tile[i+j] = OFFSET + 22 * 2 + 1;
      000C4D F8 05            [12] 3020 	ldhl	sp,	#5
      000C4F 7E               [ 8] 3021 	ld	a, (hl)
      000C50 F8 00            [12] 3022 	ldhl	sp,	#0
      000C52 86               [ 8] 3023 	add	a, (hl)
      000C53 4F               [ 4] 3024 	ld	c, a
      000C54 21r00r00         [12] 3025 	ld	hl, #_disp_tile
      000C57 06 00            [ 8] 3026 	ld	b, #0x00
      000C59 09               [ 8] 3027 	add	hl, bc
      000C5A 36 48            [12] 3028 	ld	(hl), #0x48
                                   3029 ;gb-dtmf.c:349: break;
      000C5C 18 53            [12] 3030 	jr	00120$
                                   3031 ;gb-dtmf.c:350: case ',':
      000C5E                       3032 00117$:
                                   3033 ;gb-dtmf.c:351: disp_tile[i] = OFFSET + 23 * 2;
      000C5E 11r00r00         [12] 3034 	ld	de, #_disp_tile
      000C61 F8 05            [12] 3035 	ldhl	sp,	#5
      000C63 6E               [ 8] 3036 	ld	l, (hl)
      000C64 26 00            [ 8] 3037 	ld	h, #0x00
      000C66 19               [ 8] 3038 	add	hl, de
      000C67 36 49            [12] 3039 	ld	(hl), #0x49
                                   3040 ;gb-dtmf.c:352: disp_tile[i+j] = OFFSET + 23 * 2 + 1;
      000C69 F8 05            [12] 3041 	ldhl	sp,	#5
      000C6B 7E               [ 8] 3042 	ld	a, (hl)
      000C6C F8 00            [12] 3043 	ldhl	sp,	#0
      000C6E 86               [ 8] 3044 	add	a, (hl)
      000C6F 4F               [ 4] 3045 	ld	c, a
      000C70 21r00r00         [12] 3046 	ld	hl, #_disp_tile
      000C73 06 00            [ 8] 3047 	ld	b, #0x00
      000C75 09               [ 8] 3048 	add	hl, bc
      000C76 36 4A            [12] 3049 	ld	(hl), #0x4a
                                   3050 ;gb-dtmf.c:353: break;
      000C78 18 37            [12] 3051 	jr	00120$
                                   3052 ;gb-dtmf.c:354: case 'F':
      000C7A                       3053 00118$:
                                   3054 ;gb-dtmf.c:355: disp_tile[i] = OFFSET + 24 * 2;
      000C7A 11r00r00         [12] 3055 	ld	de, #_disp_tile
      000C7D F8 05            [12] 3056 	ldhl	sp,	#5
      000C7F 6E               [ 8] 3057 	ld	l, (hl)
      000C80 26 00            [ 8] 3058 	ld	h, #0x00
      000C82 19               [ 8] 3059 	add	hl, de
      000C83 44               [ 4] 3060 	ld	b, h
      000C84 36 4B            [12] 3061 	ld	(hl), #0x4b
                                   3062 ;gb-dtmf.c:356: disp_tile[i+j] = OFFSET + 24 * 2 + 1;
      000C86 F8 05            [12] 3063 	ldhl	sp,	#5
      000C88 7E               [ 8] 3064 	ld	a, (hl)
      000C89 F8 00            [12] 3065 	ldhl	sp,	#0
      000C8B 86               [ 8] 3066 	add	a, (hl)
      000C8C 4F               [ 4] 3067 	ld	c, a
      000C8D 21r00r00         [12] 3068 	ld	hl, #_disp_tile
      000C90 06 00            [ 8] 3069 	ld	b, #0x00
      000C92 09               [ 8] 3070 	add	hl, bc
      000C93 36 4C            [12] 3071 	ld	(hl), #0x4c
                                   3072 ;gb-dtmf.c:357: break;
      000C95 18 1A            [12] 3073 	jr	00120$
                                   3074 ;gb-dtmf.c:358: case 'S':
      000C97                       3075 00119$:
                                   3076 ;gb-dtmf.c:359: disp_tile[i] = OFFSET + ('5' - '0') * 2;
      000C97 11r00r00         [12] 3077 	ld	de, #_disp_tile
      000C9A F8 05            [12] 3078 	ldhl	sp,	#5
      000C9C 6E               [ 8] 3079 	ld	l, (hl)
      000C9D 26 00            [ 8] 3080 	ld	h, #0x00
      000C9F 19               [ 8] 3081 	add	hl, de
      000CA0 36 25            [12] 3082 	ld	(hl), #0x25
                                   3083 ;gb-dtmf.c:360: disp_tile[i+j] = OFFSET + ('5' - '0') * 2 + 1;
      000CA2 F8 05            [12] 3084 	ldhl	sp,	#5
      000CA4 7E               [ 8] 3085 	ld	a, (hl)
      000CA5 F8 00            [12] 3086 	ldhl	sp,	#0
      000CA7 86               [ 8] 3087 	add	a, (hl)
      000CA8 4F               [ 4] 3088 	ld	c, a
      000CA9 21r00r00         [12] 3089 	ld	hl, #_disp_tile
      000CAC 06 00            [ 8] 3090 	ld	b, #0x00
      000CAE 09               [ 8] 3091 	add	hl, bc
      000CAF 36 26            [12] 3092 	ld	(hl), #0x26
                                   3093 ;gb-dtmf.c:362: }
      000CB1                       3094 00120$:
                                   3095 ;gb-dtmf.c:363: i++;
      000CB1 F8 05            [12] 3096 	ldhl	sp,	#5
      000CB3 34               [12] 3097 	inc	(hl)
      000CB4 C3r34r0A         [16] 3098 	jp	00121$
      000CB7                       3099 00124$:
                                   3100 ;gb-dtmf.c:365: }
      000CB7 E8 06            [16] 3101 	add	sp, #6
      000CB9 C9               [16] 3102 	ret
                                   3103 ;gb-dtmf.c:368: void clr_disp(void)
                                   3104 ;	---------------------------------
                                   3105 ; Function clr_disp
                                   3106 ; ---------------------------------
      000CBA                       3107 _clr_disp::
                                   3108 ;gb-dtmf.c:370: set_bkg_data(OFFSET, 50, dtmf_lcd);
      000CBA 11rD8r01         [12] 3109 	ld	de, #_dtmf_lcd
      000CBD D5               [16] 3110 	push	de
      000CBE 21 1B 32         [12] 3111 	ld	hl, #0x321b
      000CC1 E5               [16] 3112 	push	hl
      000CC2 CDr00r00         [24] 3113 	call	_set_bkg_data
      000CC5 E8 04            [16] 3114 	add	sp, #4
                                   3115 ;gb-dtmf.c:371: set_bkg_tiles(LCD_X, LCD_Y, LCD_WIDTH, LCD_HIGHT, init_disp);
      000CC7 11r8Er08         [12] 3116 	ld	de, #_init_disp
      000CCA D5               [16] 3117 	push	de
      000CCB 21 12 02         [12] 3118 	ld	hl, #0x212
      000CCE E5               [16] 3119 	push	hl
      000CCF 21 01 02         [12] 3120 	ld	hl, #0x201
      000CD2 E5               [16] 3121 	push	hl
      000CD3 CDr00r00         [24] 3122 	call	_set_bkg_tiles
      000CD6 E8 06            [16] 3123 	add	sp, #6
                                   3124 ;gb-dtmf.c:372: }
      000CD8 C9               [16] 3125 	ret
                                   3126 ;gb-dtmf.c:377: void disp(const char *str)
                                   3127 ;	---------------------------------
                                   3128 ; Function disp
                                   3129 ; ---------------------------------
      000CD9                       3130 _disp::
      000CD9 E8 DC            [16] 3131 	add	sp, #-36
      000CDB F8 22            [12] 3132 	ldhl	sp,	#34
      000CDD 7B               [ 4] 3133 	ld	a, e
      000CDE 22               [ 8] 3134 	ld	(hl+), a
      000CDF 72               [ 8] 3135 	ld	(hl), d
                                   3136 ;gb-dtmf.c:383: clr_disp();
      000CE0 CDrBAr0C         [24] 3137 	call	_clr_disp
                                   3138 ;gb-dtmf.c:386: while(str[no]){
      000CE3 1E 00            [ 8] 3139 	ld	e, #0x00
      000CE5                       3140 00101$:
      000CE5 D5               [16] 3141 	push	de
      000CE6 16 00            [ 8] 3142 	ld	d, #0x00
      000CE8 F8 24            [12] 3143 	ldhl	sp,	#36
      000CEA 2A               [ 8] 3144 	ld	a,	(hl+)
      000CEB 66               [ 8] 3145 	ld	h, (hl)
      000CEC 6F               [ 4] 3146 	ld	l, a
      000CED 19               [ 8] 3147 	add	hl, de
      000CEE D1               [12] 3148 	pop	de
      000CEF 4D               [ 4] 3149 	ld	c, l
      000CF0 44               [ 4] 3150 	ld	b, h
      000CF1 0A               [ 8] 3151 	ld	a, (bc)
      000CF2 B7               [ 4] 3152 	or	a, a
      000CF3 28 03            [12] 3153 	jr	Z, 00103$
                                   3154 ;gb-dtmf.c:387: no++;
      000CF5 1C               [ 4] 3155 	inc	e
      000CF6 18 ED            [12] 3156 	jr	00101$
      000CF8                       3157 00103$:
                                   3158 ;gb-dtmf.c:390: if(no >= LCD_WIDTH){
                                   3159 ;gb-dtmf.c:391: start_ch = no - LCD_WIDTH;
      000CF8 7B               [ 4] 3160 	ld	a,e
      000CF9 FE 12            [ 8] 3161 	cp	a,#0x12
      000CFB 38 09            [12] 3162 	jr	C, 00105$
      000CFD C6 EE            [ 8] 3163 	add	a, #0xee
      000CFF 4F               [ 4] 3164 	ld	c, a
                                   3165 ;gb-dtmf.c:392: end_ch = LCD_WIDTH;
      000D00 F8 20            [12] 3166 	ldhl	sp,	#32
      000D02 36 12            [12] 3167 	ld	(hl), #0x12
      000D04 18 05            [12] 3168 	jr	00117$
      000D06                       3169 00105$:
                                   3170 ;gb-dtmf.c:395: start_ch = 0;
      000D06 0E 00            [ 8] 3171 	ld	c, #0x00
                                   3172 ;gb-dtmf.c:396: end_ch = no;
      000D08 F8 20            [12] 3173 	ldhl	sp,	#32
      000D0A 73               [ 8] 3174 	ld	(hl), e
                                   3175 ;gb-dtmf.c:398: for(i = 0;i < end_ch;i++){
      000D0B                       3176 00117$:
      000D0B 06 00            [ 8] 3177 	ld	b, #0x00
      000D0D                       3178 00109$:
      000D0D 78               [ 4] 3179 	ld	a, b
      000D0E F8 20            [12] 3180 	ldhl	sp,	#32
      000D10 96               [ 8] 3181 	sub	a, (hl)
      000D11 30 27            [12] 3182 	jr	NC, 00107$
                                   3183 ;gb-dtmf.c:399: work[i] = str[i+start_ch];
      000D13 E5               [16] 3184 	push	hl
      000D14 21 04 00         [12] 3185 	ld	hl, #4
      000D17 39               [ 8] 3186 	add	hl, sp
      000D18 5D               [ 4] 3187 	ld	e, l
      000D19 54               [ 4] 3188 	ld	d, h
      000D1A E1               [12] 3189 	pop	hl
      000D1B 68               [ 4] 3190 	ld	l, b
      000D1C 26 00            [ 8] 3191 	ld	h, #0x00
      000D1E 19               [ 8] 3192 	add	hl, de
      000D1F 33               [ 8] 3193 	inc	sp
      000D20 33               [ 8] 3194 	inc	sp
      000D21 E5               [16] 3195 	push	hl
      000D22 58               [ 4] 3196 	ld	e, b
      000D23 16 00            [ 8] 3197 	ld	d, #0x00
      000D25 69               [ 4] 3198 	ld	l, c
                                   3199 ;	spillPairReg hl
                                   3200 ;	spillPairReg hl
      000D26 26 00            [ 8] 3201 	ld	h, #0x00
                                   3202 ;	spillPairReg hl
                                   3203 ;	spillPairReg hl
      000D28 19               [ 8] 3204 	add	hl, de
      000D29 5D               [ 4] 3205 	ld	e, l
      000D2A 54               [ 4] 3206 	ld	d, h
      000D2B F8 22            [12] 3207 	ldhl	sp,	#34
      000D2D 2A               [ 8] 3208 	ld	a,	(hl+)
      000D2E 66               [ 8] 3209 	ld	h, (hl)
      000D2F 6F               [ 4] 3210 	ld	l, a
      000D30 19               [ 8] 3211 	add	hl, de
      000D31 5D               [ 4] 3212 	ld	e, l
      000D32 54               [ 4] 3213 	ld	d, h
      000D33 1A               [ 8] 3214 	ld	a, (de)
      000D34 E1               [12] 3215 	pop	hl
      000D35 E5               [16] 3216 	push	hl
      000D36 77               [ 8] 3217 	ld	(hl), a
                                   3218 ;gb-dtmf.c:398: for(i = 0;i < end_ch;i++){
      000D37 04               [ 4] 3219 	inc	b
      000D38 18 D3            [12] 3220 	jr	00109$
      000D3A                       3221 00107$:
                                   3222 ;gb-dtmf.c:401: work[end_ch] = 0x00;
      000D3A E5               [16] 3223 	push	hl
      000D3B 21 04 00         [12] 3224 	ld	hl, #4
      000D3E 39               [ 8] 3225 	add	hl, sp
      000D3F 5D               [ 4] 3226 	ld	e, l
      000D40 54               [ 4] 3227 	ld	d, h
      000D41 E1               [12] 3228 	pop	hl
      000D42 F8 20            [12] 3229 	ldhl	sp,	#32
      000D44 6E               [ 8] 3230 	ld	l, (hl)
      000D45 26 00            [ 8] 3231 	ld	h, #0x00
      000D47 19               [ 8] 3232 	add	hl, de
      000D48 4D               [ 4] 3233 	ld	c, l
      000D49 44               [ 4] 3234 	ld	b, h
      000D4A AF               [ 4] 3235 	xor	a, a
      000D4B 02               [ 8] 3236 	ld	(bc), a
                                   3237 ;gb-dtmf.c:403: disp_lcd(end_ch, work);
      000D4C 21 02 00         [12] 3238 	ld	hl, #2
      000D4F 39               [ 8] 3239 	add	hl, sp
      000D50 5D               [ 4] 3240 	ld	e, l
      000D51 54               [ 4] 3241 	ld	d, h
      000D52 F8 20            [12] 3242 	ldhl	sp,	#32
      000D54 7E               [ 8] 3243 	ld	a, (hl)
      000D55 CDr26r0A         [24] 3244 	call	_disp_lcd
                                   3245 ;gb-dtmf.c:405: left_pos = 19 - end_ch;
      000D58 F8 20            [12] 3246 	ldhl	sp,	#32
      000D5A 2A               [ 8] 3247 	ld	a, (hl+)
      000D5B 4F               [ 4] 3248 	ld	c, a
      000D5C 3E 13            [ 8] 3249 	ld	a, #0x13
      000D5E 91               [ 4] 3250 	sub	a, c
                                   3251 ;gb-dtmf.c:406: set_bkg_tiles(left_pos, 2, end_ch, LCD_HIGHT, disp_tile);
      000D5F 32               [ 8] 3252 	ld	(hl-), a
      000D60 11r00r00         [12] 3253 	ld	de, #_disp_tile
      000D63 D5               [16] 3254 	push	de
      000D64 3E 02            [ 8] 3255 	ld	a, #0x02
      000D66 F5               [16] 3256 	push	af
      000D67 33               [ 8] 3257 	inc	sp
      000D68 2A               [ 8] 3258 	ld	a, (hl+)
      000D69 57               [ 4] 3259 	ld	d, a
      000D6A 1E 02            [ 8] 3260 	ld	e, #0x02
      000D6C D5               [16] 3261 	push	de
      000D6D 7E               [ 8] 3262 	ld	a, (hl)
      000D6E F5               [16] 3263 	push	af
      000D6F 33               [ 8] 3264 	inc	sp
      000D70 CDr00r00         [24] 3265 	call	_set_bkg_tiles
                                   3266 ;gb-dtmf.c:407: }
      000D73 E8 2A            [16] 3267 	add	sp, #42
      000D75 C9               [16] 3268 	ret
                                   3269 ;gb-dtmf.c:409: void press_button(uint8_t x, uint8_t y)
                                   3270 ;	---------------------------------
                                   3271 ; Function press_button
                                   3272 ; ---------------------------------
      000D76                       3273 _press_button::
      000D76 3B               [ 8] 3274 	dec	sp
      000D77 3B               [ 8] 3275 	dec	sp
      000D78 47               [ 4] 3276 	ld	b, a
      000D79 4B               [ 4] 3277 	ld	c, e
                                   3278 ;gb-dtmf.c:412: set_bkg_tiles(x * 3 + 1, y * 3 + 5, 3, 3, press_tile);
      000D7A 79               [ 4] 3279 	ld	a, c
      000D7B F8 01            [12] 3280 	ldhl	sp,	#1
      000D7D 70               [ 8] 3281 	ld	(hl), b
      000D7E 2B               [ 8] 3282 	dec	hl
      000D7F 5F               [ 4] 3283 	ld	e, a
      000D80 87               [ 4] 3284 	add	a, a
      000D81 83               [ 4] 3285 	add	a, e
      000D82 22               [ 8] 3286 	ld	(hl+), a
      000D83 7E               [ 8] 3287 	ld	a, (hl)
      000D84 5F               [ 4] 3288 	ld	e, a
      000D85 87               [ 4] 3289 	add	a, a
      000D86 83               [ 4] 3290 	add	a, e
      000D87 32               [ 8] 3291 	ld	(hl-), a
      000D88 7E               [ 8] 3292 	ld	a, (hl)
      000D89 C6 05            [ 8] 3293 	add	a, #0x05
      000D8B 57               [ 4] 3294 	ld	d, a
                                   3295 ;gb-dtmf.c:411: if(x <= 3 && y <= 3){
      000D8C 3E 03            [ 8] 3296 	ld	a,#0x03
      000D8E B8               [ 4] 3297 	cp	a,b
      000D8F 38 1B            [12] 3298 	jr	C, 00102$
      000D91 91               [ 4] 3299 	sub	a, c
      000D92 38 18            [12] 3300 	jr	C, 00102$
                                   3301 ;gb-dtmf.c:412: set_bkg_tiles(x * 3 + 1, y * 3 + 5, 3, 3, press_tile);
      000D94 23               [ 8] 3302 	inc	hl
      000D95 7E               [ 8] 3303 	ld	a, (hl)
      000D96 3C               [ 4] 3304 	inc	a
      000D97 D5               [16] 3305 	push	de
      000D98 21r73r08         [12] 3306 	ld	hl, #_press_tile
      000D9B E5               [16] 3307 	push	hl
      000D9C 26 03            [ 8] 3308 	ld	h, #0x03
                                   3309 ;	spillPairReg hl
                                   3310 ;	spillPairReg hl
      000D9E E5               [16] 3311 	push	hl
      000D9F 33               [ 8] 3312 	inc	sp
      000DA0 26 03            [ 8] 3313 	ld	h, #0x03
                                   3314 ;	spillPairReg hl
                                   3315 ;	spillPairReg hl
      000DA2 6A               [ 4] 3316 	ld	l, d
      000DA3 E5               [16] 3317 	push	hl
      000DA4 F5               [16] 3318 	push	af
      000DA5 33               [ 8] 3319 	inc	sp
      000DA6 CDr00r00         [24] 3320 	call	_set_bkg_tiles
      000DA9 E8 06            [16] 3321 	add	sp, #6
      000DAB D1               [12] 3322 	pop	de
      000DAC                       3323 00102$:
                                   3324 ;gb-dtmf.c:414: if((x == 4 || x == 5) && (y <= 2)){
      000DAC 78               [ 4] 3325 	ld	a, b
      000DAD D6 04            [ 8] 3326 	sub	a, #0x04
      000DAF 3E 01            [ 8] 3327 	ld	a, #0x01
      000DB1 28 01            [12] 3328 	jr	Z, 00157$
      000DB3 AF               [ 4] 3329 	xor	a, a
      000DB4                       3330 00157$:
      000DB4 5F               [ 4] 3331 	ld	e, a
      000DB5 78               [ 4] 3332 	ld	a, b
      000DB6 D6 05            [ 8] 3333 	sub	a, #0x05
      000DB8 3E 01            [ 8] 3334 	ld	a, #0x01
      000DBA 28 01            [12] 3335 	jr	Z, 00159$
      000DBC AF               [ 4] 3336 	xor	a, a
      000DBD                       3337 00159$:
      000DBD 47               [ 4] 3338 	ld	b, a
      000DBE 7B               [ 4] 3339 	ld	a, e
      000DBF B7               [ 4] 3340 	or	a,a
      000DC0 20 03            [12] 3341 	jr	NZ, 00107$
      000DC2 B0               [ 4] 3342 	or	a,b
      000DC3 28 1F            [12] 3343 	jr	Z, 00105$
      000DC5                       3344 00107$:
      000DC5 3E 02            [ 8] 3345 	ld	a, #0x02
      000DC7 91               [ 4] 3346 	sub	a, c
      000DC8 38 1A            [12] 3347 	jr	C, 00105$
                                   3348 ;gb-dtmf.c:415: set_bkg_tiles(x * 3 + 2, y * 3 + 5, 3, 3, press_tile);
      000DCA F8 01            [12] 3349 	ldhl	sp,	#1
      000DCC 7E               [ 8] 3350 	ld	a, (hl)
      000DCD 3C               [ 4] 3351 	inc	a
      000DCE 3C               [ 4] 3352 	inc	a
      000DCF D5               [16] 3353 	push	de
      000DD0 21r73r08         [12] 3354 	ld	hl, #_press_tile
      000DD3 E5               [16] 3355 	push	hl
      000DD4 26 03            [ 8] 3356 	ld	h, #0x03
                                   3357 ;	spillPairReg hl
                                   3358 ;	spillPairReg hl
      000DD6 E5               [16] 3359 	push	hl
      000DD7 33               [ 8] 3360 	inc	sp
      000DD8 26 03            [ 8] 3361 	ld	h, #0x03
                                   3362 ;	spillPairReg hl
                                   3363 ;	spillPairReg hl
      000DDA 6A               [ 4] 3364 	ld	l, d
      000DDB E5               [16] 3365 	push	hl
      000DDC F5               [16] 3366 	push	af
      000DDD 33               [ 8] 3367 	inc	sp
      000DDE CDr00r00         [24] 3368 	call	_set_bkg_tiles
      000DE1 E8 06            [16] 3369 	add	sp, #6
      000DE3 D1               [12] 3370 	pop	de
      000DE4                       3371 00105$:
                                   3372 ;gb-dtmf.c:417: if((x == 4 || x == 5) && (y == 3)){
      000DE4 7B               [ 4] 3373 	ld	a, e
      000DE5 B7               [ 4] 3374 	or	a,a
      000DE6 20 03            [12] 3375 	jr	NZ, 00111$
      000DE8 B0               [ 4] 3376 	or	a,b
      000DE9 28 16            [12] 3377 	jr	Z, 00112$
      000DEB                       3378 00111$:
      000DEB 79               [ 4] 3379 	ld	a, c
      000DEC D6 03            [ 8] 3380 	sub	a, #0x03
      000DEE 20 11            [12] 3381 	jr	NZ, 00112$
                                   3382 ;gb-dtmf.c:418: set_bkg_tiles(14, 14, 6, 3, dialing_press);
      000DF0 11r7Cr08         [12] 3383 	ld	de, #_dialing_press
      000DF3 D5               [16] 3384 	push	de
      000DF4 21 06 03         [12] 3385 	ld	hl, #0x306
      000DF7 E5               [16] 3386 	push	hl
      000DF8 21 0E 0E         [12] 3387 	ld	hl, #0xe0e
      000DFB E5               [16] 3388 	push	hl
      000DFC CDr00r00         [24] 3389 	call	_set_bkg_tiles
      000DFF E8 06            [16] 3390 	add	sp, #6
      000E01                       3391 00112$:
                                   3392 ;gb-dtmf.c:420: }
      000E01 33               [ 8] 3393 	inc	sp
      000E02 33               [ 8] 3394 	inc	sp
      000E03 C9               [16] 3395 	ret
                                   3396 ;gb-dtmf.c:422: void break_button(uint8_t x, uint8_t y)
                                   3397 ;	---------------------------------
                                   3398 ; Function break_button
                                   3399 ; ---------------------------------
      000E04                       3400 _break_button::
      000E04 3B               [ 8] 3401 	dec	sp
      000E05 3B               [ 8] 3402 	dec	sp
      000E06 47               [ 4] 3403 	ld	b, a
      000E07 4B               [ 4] 3404 	ld	c, e
                                   3405 ;gb-dtmf.c:425: set_bkg_tiles(x * 3 + 1, y * 3 + 5, 3, 3, break_tile);
      000E08 79               [ 4] 3406 	ld	a, c
      000E09 F8 01            [12] 3407 	ldhl	sp,	#1
      000E0B 70               [ 8] 3408 	ld	(hl), b
      000E0C 2B               [ 8] 3409 	dec	hl
      000E0D 5F               [ 4] 3410 	ld	e, a
      000E0E 87               [ 4] 3411 	add	a, a
      000E0F 83               [ 4] 3412 	add	a, e
      000E10 22               [ 8] 3413 	ld	(hl+), a
      000E11 7E               [ 8] 3414 	ld	a, (hl)
      000E12 5F               [ 4] 3415 	ld	e, a
      000E13 87               [ 4] 3416 	add	a, a
      000E14 83               [ 4] 3417 	add	a, e
      000E15 32               [ 8] 3418 	ld	(hl-), a
      000E16 7E               [ 8] 3419 	ld	a, (hl)
      000E17 C6 05            [ 8] 3420 	add	a, #0x05
      000E19 57               [ 4] 3421 	ld	d, a
                                   3422 ;gb-dtmf.c:424: if(x <= 3 && y <= 3){
      000E1A 3E 03            [ 8] 3423 	ld	a,#0x03
      000E1C B8               [ 4] 3424 	cp	a,b
      000E1D 38 1B            [12] 3425 	jr	C, 00102$
      000E1F 91               [ 4] 3426 	sub	a, c
      000E20 38 18            [12] 3427 	jr	C, 00102$
                                   3428 ;gb-dtmf.c:425: set_bkg_tiles(x * 3 + 1, y * 3 + 5, 3, 3, break_tile);
      000E22 23               [ 8] 3429 	inc	hl
      000E23 7E               [ 8] 3430 	ld	a, (hl)
      000E24 3C               [ 4] 3431 	inc	a
      000E25 D5               [16] 3432 	push	de
      000E26 21r58r08         [12] 3433 	ld	hl, #_break_tile
      000E29 E5               [16] 3434 	push	hl
      000E2A 26 03            [ 8] 3435 	ld	h, #0x03
                                   3436 ;	spillPairReg hl
                                   3437 ;	spillPairReg hl
      000E2C E5               [16] 3438 	push	hl
      000E2D 33               [ 8] 3439 	inc	sp
      000E2E 26 03            [ 8] 3440 	ld	h, #0x03
                                   3441 ;	spillPairReg hl
                                   3442 ;	spillPairReg hl
      000E30 6A               [ 4] 3443 	ld	l, d
      000E31 E5               [16] 3444 	push	hl
      000E32 F5               [16] 3445 	push	af
      000E33 33               [ 8] 3446 	inc	sp
      000E34 CDr00r00         [24] 3447 	call	_set_bkg_tiles
      000E37 E8 06            [16] 3448 	add	sp, #6
      000E39 D1               [12] 3449 	pop	de
      000E3A                       3450 00102$:
                                   3451 ;gb-dtmf.c:427: if((x == 4 || x == 5) && (y <= 2)){
      000E3A 78               [ 4] 3452 	ld	a, b
      000E3B D6 04            [ 8] 3453 	sub	a, #0x04
      000E3D 3E 01            [ 8] 3454 	ld	a, #0x01
      000E3F 28 01            [12] 3455 	jr	Z, 00157$
      000E41 AF               [ 4] 3456 	xor	a, a
      000E42                       3457 00157$:
      000E42 5F               [ 4] 3458 	ld	e, a
      000E43 78               [ 4] 3459 	ld	a, b
      000E44 D6 05            [ 8] 3460 	sub	a, #0x05
      000E46 3E 01            [ 8] 3461 	ld	a, #0x01
      000E48 28 01            [12] 3462 	jr	Z, 00159$
      000E4A AF               [ 4] 3463 	xor	a, a
      000E4B                       3464 00159$:
      000E4B 47               [ 4] 3465 	ld	b, a
      000E4C 7B               [ 4] 3466 	ld	a, e
      000E4D B7               [ 4] 3467 	or	a,a
      000E4E 20 03            [12] 3468 	jr	NZ, 00107$
      000E50 B0               [ 4] 3469 	or	a,b
      000E51 28 1F            [12] 3470 	jr	Z, 00105$
      000E53                       3471 00107$:
      000E53 3E 02            [ 8] 3472 	ld	a, #0x02
      000E55 91               [ 4] 3473 	sub	a, c
      000E56 38 1A            [12] 3474 	jr	C, 00105$
                                   3475 ;gb-dtmf.c:428: set_bkg_tiles(x * 3 + 2, y * 3 + 5, 3, 3, break_tile);
      000E58 F8 01            [12] 3476 	ldhl	sp,	#1
      000E5A 7E               [ 8] 3477 	ld	a, (hl)
      000E5B 3C               [ 4] 3478 	inc	a
      000E5C 3C               [ 4] 3479 	inc	a
      000E5D D5               [16] 3480 	push	de
      000E5E 21r58r08         [12] 3481 	ld	hl, #_break_tile
      000E61 E5               [16] 3482 	push	hl
      000E62 26 03            [ 8] 3483 	ld	h, #0x03
                                   3484 ;	spillPairReg hl
                                   3485 ;	spillPairReg hl
      000E64 E5               [16] 3486 	push	hl
      000E65 33               [ 8] 3487 	inc	sp
      000E66 26 03            [ 8] 3488 	ld	h, #0x03
                                   3489 ;	spillPairReg hl
                                   3490 ;	spillPairReg hl
      000E68 6A               [ 4] 3491 	ld	l, d
      000E69 E5               [16] 3492 	push	hl
      000E6A F5               [16] 3493 	push	af
      000E6B 33               [ 8] 3494 	inc	sp
      000E6C CDr00r00         [24] 3495 	call	_set_bkg_tiles
      000E6F E8 06            [16] 3496 	add	sp, #6
      000E71 D1               [12] 3497 	pop	de
      000E72                       3498 00105$:
                                   3499 ;gb-dtmf.c:430: if((x == 4 || x == 5) && (y == 3)){
      000E72 7B               [ 4] 3500 	ld	a, e
      000E73 B7               [ 4] 3501 	or	a,a
      000E74 20 03            [12] 3502 	jr	NZ, 00111$
      000E76 B0               [ 4] 3503 	or	a,b
      000E77 28 16            [12] 3504 	jr	Z, 00112$
      000E79                       3505 00111$:
      000E79 79               [ 4] 3506 	ld	a, c
      000E7A D6 03            [ 8] 3507 	sub	a, #0x03
      000E7C 20 11            [12] 3508 	jr	NZ, 00112$
                                   3509 ;gb-dtmf.c:431: set_bkg_tiles(14, 14, 6, 3, dialing_break);
      000E7E 11r61r08         [12] 3510 	ld	de, #_dialing_break
      000E81 D5               [16] 3511 	push	de
      000E82 21 06 03         [12] 3512 	ld	hl, #0x306
      000E85 E5               [16] 3513 	push	hl
      000E86 21 0E 0E         [12] 3514 	ld	hl, #0xe0e
      000E89 E5               [16] 3515 	push	hl
      000E8A CDr00r00         [24] 3516 	call	_set_bkg_tiles
      000E8D E8 06            [16] 3517 	add	sp, #6
      000E8F                       3518 00112$:
                                   3519 ;gb-dtmf.c:433: }
      000E8F 33               [ 8] 3520 	inc	sp
      000E90 33               [ 8] 3521 	inc	sp
      000E91 C9               [16] 3522 	ret
                                   3523 ;gb-dtmf.c:436: void init_key(void)
                                   3524 ;	---------------------------------
                                   3525 ; Function init_key
                                   3526 ; ---------------------------------
      000E92                       3527 _init_key::
      000E92 E8 FD            [16] 3528 	add	sp, #-3
                                   3529 ;gb-dtmf.c:441: set_sprite_data(0, 24, key_num);
      000E94 11rF8r04         [12] 3530 	ld	de, #_key_num
      000E97 D5               [16] 3531 	push	de
      000E98 21 00 18         [12] 3532 	ld	hl, #0x1800
      000E9B E5               [16] 3533 	push	hl
      000E9C CDr00r00         [24] 3534 	call	_set_sprite_data
      000E9F E8 04            [16] 3535 	add	sp, #4
                                   3536 ;gb-dtmf.c:445: for(i = 1;i <= 3;i++){
      000EA1 0E 01            [ 8] 3537 	ld	c, #0x01
      000EA3                       3538 00127$:
                                   3539 ;gb-dtmf.c:446: key_x = i * KEY_STEP;
      000EA3 79               [ 4] 3540 	ld	a, c
      000EA4 87               [ 4] 3541 	add	a, a
      000EA5 81               [ 4] 3542 	add	a, c
      000EA6 87               [ 4] 3543 	add	a, a
      000EA7 87               [ 4] 3544 	add	a, a
      000EA8 87               [ 4] 3545 	add	a, a
      000EA9 47               [ 4] 3546 	ld	b, a
                                   3547 ;../../../include/gb/gb.h:1804: shadow_OAM[nb].tile=tile;
      000EAA 69               [ 4] 3548 	ld	l, c
                                   3549 ;	spillPairReg hl
                                   3550 ;	spillPairReg hl
      000EAB 26 00            [ 8] 3551 	ld	h, #0x00
                                   3552 ;	spillPairReg hl
                                   3553 ;	spillPairReg hl
      000EAD 29               [ 8] 3554 	add	hl, hl
      000EAE 29               [ 8] 3555 	add	hl, hl
      000EAF 5D               [ 4] 3556 	ld	e, l
      000EB0 54               [ 4] 3557 	ld	d, h
      000EB1 21r01r00         [12] 3558 	ld	hl,#_shadow_OAM + 1
      000EB4 19               [ 8] 3559 	add	hl,de
      000EB5 23               [ 8] 3560 	inc	hl
      000EB6 71               [ 8] 3561 	ld	(hl), c
                                   3562 ;../../../include/gb/gb.h:1877: OAM_item_t * itm = &shadow_OAM[nb];
      000EB7 21r00r00         [12] 3563 	ld	hl, #_shadow_OAM
      000EBA 19               [ 8] 3564 	add	hl, de
                                   3565 ;../../../include/gb/gb.h:1878: itm->y=y, itm->x=x;
      000EBB 3E 40            [ 8] 3566 	ld	a, #0x40
      000EBD 22               [ 8] 3567 	ld	(hl+), a
      000EBE 70               [ 8] 3568 	ld	(hl), b
                                   3569 ;gb-dtmf.c:445: for(i = 1;i <= 3;i++){
      000EBF 0C               [ 4] 3570 	inc	c
      000EC0 3E 03            [ 8] 3571 	ld	a, #0x03
      000EC2 91               [ 4] 3572 	sub	a, c
      000EC3 30 DE            [12] 3573 	jr	NC, 00127$
                                   3574 ;gb-dtmf.c:453: for(i = 4;i <= 6;i++){
      000EC5 0E 04            [ 8] 3575 	ld	c, #0x04
      000EC7                       3576 00129$:
                                   3577 ;gb-dtmf.c:454: key_x = (i - 3) * KEY_STEP;
      000EC7 79               [ 4] 3578 	ld	a, c
      000EC8 C6 FD            [ 8] 3579 	add	a, #0xfd
      000ECA 5F               [ 4] 3580 	ld	e, a
      000ECB 87               [ 4] 3581 	add	a, a
      000ECC 83               [ 4] 3582 	add	a, e
      000ECD 87               [ 4] 3583 	add	a, a
      000ECE 87               [ 4] 3584 	add	a, a
      000ECF 87               [ 4] 3585 	add	a, a
      000ED0 47               [ 4] 3586 	ld	b, a
                                   3587 ;../../../include/gb/gb.h:1804: shadow_OAM[nb].tile=tile;
      000ED1 69               [ 4] 3588 	ld	l, c
                                   3589 ;	spillPairReg hl
                                   3590 ;	spillPairReg hl
      000ED2 26 00            [ 8] 3591 	ld	h, #0x00
                                   3592 ;	spillPairReg hl
                                   3593 ;	spillPairReg hl
      000ED4 29               [ 8] 3594 	add	hl, hl
      000ED5 29               [ 8] 3595 	add	hl, hl
      000ED6 5D               [ 4] 3596 	ld	e, l
      000ED7 54               [ 4] 3597 	ld	d, h
      000ED8 21r01r00         [12] 3598 	ld	hl,#_shadow_OAM + 1
      000EDB 19               [ 8] 3599 	add	hl,de
      000EDC 23               [ 8] 3600 	inc	hl
      000EDD 71               [ 8] 3601 	ld	(hl), c
                                   3602 ;../../../include/gb/gb.h:1877: OAM_item_t * itm = &shadow_OAM[nb];
      000EDE 21r00r00         [12] 3603 	ld	hl, #_shadow_OAM
      000EE1 19               [ 8] 3604 	add	hl, de
                                   3605 ;../../../include/gb/gb.h:1878: itm->y=y, itm->x=x;
      000EE2 3E 58            [ 8] 3606 	ld	a, #0x58
      000EE4 22               [ 8] 3607 	ld	(hl+), a
      000EE5 70               [ 8] 3608 	ld	(hl), b
                                   3609 ;gb-dtmf.c:453: for(i = 4;i <= 6;i++){
      000EE6 0C               [ 4] 3610 	inc	c
      000EE7 3E 06            [ 8] 3611 	ld	a, #0x06
      000EE9 91               [ 4] 3612 	sub	a, c
      000EEA 30 DB            [12] 3613 	jr	NC, 00129$
                                   3614 ;gb-dtmf.c:461: for(i = 7;i <= 9;i++){
      000EEC 0E 07            [ 8] 3615 	ld	c, #0x07
      000EEE                       3616 00131$:
                                   3617 ;gb-dtmf.c:462: key_x = (i - 6) * KEY_STEP;
      000EEE 79               [ 4] 3618 	ld	a, c
      000EEF C6 FA            [ 8] 3619 	add	a, #0xfa
      000EF1 5F               [ 4] 3620 	ld	e, a
      000EF2 87               [ 4] 3621 	add	a, a
      000EF3 83               [ 4] 3622 	add	a, e
      000EF4 87               [ 4] 3623 	add	a, a
      000EF5 87               [ 4] 3624 	add	a, a
      000EF6 87               [ 4] 3625 	add	a, a
      000EF7 47               [ 4] 3626 	ld	b, a
                                   3627 ;../../../include/gb/gb.h:1804: shadow_OAM[nb].tile=tile;
      000EF8 69               [ 4] 3628 	ld	l, c
                                   3629 ;	spillPairReg hl
                                   3630 ;	spillPairReg hl
      000EF9 26 00            [ 8] 3631 	ld	h, #0x00
                                   3632 ;	spillPairReg hl
                                   3633 ;	spillPairReg hl
      000EFB 29               [ 8] 3634 	add	hl, hl
      000EFC 29               [ 8] 3635 	add	hl, hl
      000EFD 5D               [ 4] 3636 	ld	e, l
      000EFE 54               [ 4] 3637 	ld	d, h
      000EFF 21r01r00         [12] 3638 	ld	hl,#_shadow_OAM + 1
      000F02 19               [ 8] 3639 	add	hl,de
      000F03 23               [ 8] 3640 	inc	hl
      000F04 71               [ 8] 3641 	ld	(hl), c
                                   3642 ;../../../include/gb/gb.h:1877: OAM_item_t * itm = &shadow_OAM[nb];
      000F05 21r00r00         [12] 3643 	ld	hl, #_shadow_OAM
      000F08 19               [ 8] 3644 	add	hl, de
                                   3645 ;../../../include/gb/gb.h:1878: itm->y=y, itm->x=x;
      000F09 3E 70            [ 8] 3646 	ld	a, #0x70
      000F0B 22               [ 8] 3647 	ld	(hl+), a
      000F0C 70               [ 8] 3648 	ld	(hl), b
                                   3649 ;gb-dtmf.c:461: for(i = 7;i <= 9;i++){
      000F0D 0C               [ 4] 3650 	inc	c
      000F0E 3E 09            [ 8] 3651 	ld	a, #0x09
      000F10 91               [ 4] 3652 	sub	a, c
      000F11 30 DB            [12] 3653 	jr	NC, 00131$
                                   3654 ;gb-dtmf.c:469: for(i = 0;i <= 3;i++){
      000F13 F8 02            [12] 3655 	ldhl	sp,	#2
      000F15 36 00            [12] 3656 	ld	(hl), #0x00
      000F17                       3657 00133$:
                                   3658 ;gb-dtmf.c:470: key_y = (i+1) * KEY_STEP + 40;
      000F17 F8 02            [12] 3659 	ldhl	sp,	#2
      000F19 3A               [ 8] 3660 	ld	a, (hl-)
      000F1A 2B               [ 8] 3661 	dec	hl
      000F1B 4F               [ 4] 3662 	ld	c, a
      000F1C 3C               [ 4] 3663 	inc	a
      000F1D 5F               [ 4] 3664 	ld	e, a
      000F1E 87               [ 4] 3665 	add	a, a
      000F1F 83               [ 4] 3666 	add	a, e
      000F20 87               [ 4] 3667 	add	a, a
      000F21 87               [ 4] 3668 	add	a, a
      000F22 87               [ 4] 3669 	add	a, a
      000F23 C6 28            [ 8] 3670 	add	a, #0x28
                                   3671 ;gb-dtmf.c:471: set_sprite_tile(i+10, i+10);
      000F25 22               [ 8] 3672 	ld	(hl+), a
      000F26 79               [ 4] 3673 	ld	a, c
      000F27 C6 0A            [ 8] 3674 	add	a, #0x0a
      000F29 5F               [ 4] 3675 	ld	e, a
      000F2A 73               [ 8] 3676 	ld	(hl), e
                                   3677 ;../../../include/gb/gb.h:1804: shadow_OAM[nb].tile=tile;
      000F2B 6B               [ 4] 3678 	ld	l, e
                                   3679 ;	spillPairReg hl
                                   3680 ;	spillPairReg hl
      000F2C 26 00            [ 8] 3681 	ld	h, #0x00
                                   3682 ;	spillPairReg hl
                                   3683 ;	spillPairReg hl
      000F2E 29               [ 8] 3684 	add	hl, hl
      000F2F 29               [ 8] 3685 	add	hl, hl
      000F30 01r00r00         [12] 3686 	ld	bc, #_shadow_OAM
      000F33 09               [ 8] 3687 	add	hl, bc
      000F34 23               [ 8] 3688 	inc	hl
      000F35 23               [ 8] 3689 	inc	hl
      000F36 4D               [ 4] 3690 	ld	c, l
      000F37 44               [ 4] 3691 	ld	b, h
      000F38 F8 01            [12] 3692 	ldhl	sp,	#1
      000F3A 7E               [ 8] 3693 	ld	a, (hl)
      000F3B 02               [ 8] 3694 	ld	(bc), a
                                   3695 ;gb-dtmf.c:472: move_sprite(i+10, key_x, key_y);
                                   3696 ;../../../include/gb/gb.h:1877: OAM_item_t * itm = &shadow_OAM[nb];
      000F3C 01r00r00         [12] 3697 	ld	bc, #_shadow_OAM+0
      000F3F 6B               [ 4] 3698 	ld	l, e
                                   3699 ;	spillPairReg hl
                                   3700 ;	spillPairReg hl
      000F40 26 00            [ 8] 3701 	ld	h, #0x00
                                   3702 ;	spillPairReg hl
                                   3703 ;	spillPairReg hl
      000F42 29               [ 8] 3704 	add	hl, hl
      000F43 29               [ 8] 3705 	add	hl, hl
      000F44 09               [ 8] 3706 	add	hl, bc
      000F45 4D               [ 4] 3707 	ld	c, l
      000F46 44               [ 4] 3708 	ld	b, h
                                   3709 ;../../../include/gb/gb.h:1878: itm->y=y, itm->x=x;
      000F47 F8 00            [12] 3710 	ldhl	sp,	#0
                                   3711 ;gb-dtmf.c:469: for(i = 0;i <= 3;i++){
      000F49 2A               [ 8] 3712 	ld	a, (hl+)
      000F4A 23               [ 8] 3713 	inc	hl
      000F4B 02               [ 8] 3714 	ld	(bc), a
      000F4C 03               [ 8] 3715 	inc	bc
      000F4D 3E 60            [ 8] 3716 	ld	a, #0x60
      000F4F 02               [ 8] 3717 	ld	(bc), a
      000F50 34               [12] 3718 	inc	(hl)
      000F51 3E 03            [ 8] 3719 	ld	a, #0x03
      000F53 96               [ 8] 3720 	sub	a, (hl)
      000F54 30 C1            [12] 3721 	jr	NC, 00133$
                                   3722 ;../../../include/gb/gb.h:1804: shadow_OAM[nb].tile=tile;
      000F56 21r3Er00         [12] 3723 	ld	hl, #(_shadow_OAM + 62)
      000F59 36 0F            [12] 3724 	ld	(hl), #0x0f
                                   3725 ;../../../include/gb/gb.h:1877: OAM_item_t * itm = &shadow_OAM[nb];
      000F5B 21r3Cr00         [12] 3726 	ld	hl, #(_shadow_OAM + 60)
                                   3727 ;../../../include/gb/gb.h:1878: itm->y=y, itm->x=x;
      000F5E 3E 88            [ 8] 3728 	ld	a, #0x88
      000F60 22               [ 8] 3729 	ld	(hl+), a
      000F61 36 18            [12] 3730 	ld	(hl), #0x18
                                   3731 ;../../../include/gb/gb.h:1804: shadow_OAM[nb].tile=tile;
      000F63 21r02r00         [12] 3732 	ld	hl, #(_shadow_OAM + 2)
      000F66 36 00            [12] 3733 	ld	(hl), #0x00
                                   3734 ;../../../include/gb/gb.h:1877: OAM_item_t * itm = &shadow_OAM[nb];
      000F68 21r00r00         [12] 3735 	ld	hl, #_shadow_OAM
                                   3736 ;../../../include/gb/gb.h:1878: itm->y=y, itm->x=x;
      000F6B 3E 88            [ 8] 3737 	ld	a, #0x88
      000F6D 22               [ 8] 3738 	ld	(hl+), a
      000F6E 36 30            [12] 3739 	ld	(hl), #0x30
                                   3740 ;../../../include/gb/gb.h:1804: shadow_OAM[nb].tile=tile;
      000F70 21r3Ar00         [12] 3741 	ld	hl, #(_shadow_OAM + 58)
      000F73 36 0E            [12] 3742 	ld	(hl), #0x0e
                                   3743 ;../../../include/gb/gb.h:1877: OAM_item_t * itm = &shadow_OAM[nb];
      000F75 21r38r00         [12] 3744 	ld	hl, #(_shadow_OAM + 56)
                                   3745 ;../../../include/gb/gb.h:1878: itm->y=y, itm->x=x;
      000F78 3E 88            [ 8] 3746 	ld	a, #0x88
      000F7A 22               [ 8] 3747 	ld	(hl+), a
      000F7B 36 48            [12] 3748 	ld	(hl), #0x48
                                   3749 ;gb-dtmf.c:485: for(i = 0;i <= 2;i++){
      000F7D F8 02            [12] 3750 	ldhl	sp,	#2
      000F7F 36 00            [12] 3751 	ld	(hl), #0x00
      000F81                       3752 00135$:
                                   3753 ;gb-dtmf.c:486: key_y = (i+1) * KEY_STEP + 40;
      000F81 F8 02            [12] 3754 	ldhl	sp,	#2
      000F83 3A               [ 8] 3755 	ld	a, (hl-)
      000F84 2B               [ 8] 3756 	dec	hl
      000F85 4F               [ 4] 3757 	ld	c, a
      000F86 3C               [ 4] 3758 	inc	a
      000F87 5F               [ 4] 3759 	ld	e, a
      000F88 87               [ 4] 3760 	add	a, a
      000F89 83               [ 4] 3761 	add	a, e
      000F8A 87               [ 4] 3762 	add	a, a
      000F8B 87               [ 4] 3763 	add	a, a
      000F8C 87               [ 4] 3764 	add	a, a
      000F8D C6 28            [ 8] 3765 	add	a, #0x28
                                   3766 ;gb-dtmf.c:487: set_sprite_tile(i+16, i+16);
      000F8F 22               [ 8] 3767 	ld	(hl+), a
      000F90 79               [ 4] 3768 	ld	a, c
      000F91 C6 10            [ 8] 3769 	add	a, #0x10
      000F93 5F               [ 4] 3770 	ld	e, a
      000F94 73               [ 8] 3771 	ld	(hl), e
                                   3772 ;../../../include/gb/gb.h:1804: shadow_OAM[nb].tile=tile;
      000F95 6B               [ 4] 3773 	ld	l, e
                                   3774 ;	spillPairReg hl
                                   3775 ;	spillPairReg hl
      000F96 26 00            [ 8] 3776 	ld	h, #0x00
                                   3777 ;	spillPairReg hl
                                   3778 ;	spillPairReg hl
      000F98 29               [ 8] 3779 	add	hl, hl
      000F99 29               [ 8] 3780 	add	hl, hl
      000F9A 01r00r00         [12] 3781 	ld	bc, #_shadow_OAM
      000F9D 09               [ 8] 3782 	add	hl, bc
      000F9E 23               [ 8] 3783 	inc	hl
      000F9F 23               [ 8] 3784 	inc	hl
      000FA0 4D               [ 4] 3785 	ld	c, l
      000FA1 44               [ 4] 3786 	ld	b, h
      000FA2 F8 01            [12] 3787 	ldhl	sp,	#1
      000FA4 7E               [ 8] 3788 	ld	a, (hl)
      000FA5 02               [ 8] 3789 	ld	(bc), a
                                   3790 ;gb-dtmf.c:488: move_sprite(i+16, key_x, key_y);
                                   3791 ;../../../include/gb/gb.h:1877: OAM_item_t * itm = &shadow_OAM[nb];
      000FA6 01r00r00         [12] 3792 	ld	bc, #_shadow_OAM+0
      000FA9 6B               [ 4] 3793 	ld	l, e
                                   3794 ;	spillPairReg hl
                                   3795 ;	spillPairReg hl
      000FAA 26 00            [ 8] 3796 	ld	h, #0x00
                                   3797 ;	spillPairReg hl
                                   3798 ;	spillPairReg hl
      000FAC 29               [ 8] 3799 	add	hl, hl
      000FAD 29               [ 8] 3800 	add	hl, hl
      000FAE 09               [ 8] 3801 	add	hl, bc
      000FAF 4D               [ 4] 3802 	ld	c, l
      000FB0 44               [ 4] 3803 	ld	b, h
                                   3804 ;../../../include/gb/gb.h:1878: itm->y=y, itm->x=x;
      000FB1 F8 00            [12] 3805 	ldhl	sp,	#0
                                   3806 ;gb-dtmf.c:485: for(i = 0;i <= 2;i++){
      000FB3 2A               [ 8] 3807 	ld	a, (hl+)
      000FB4 23               [ 8] 3808 	inc	hl
      000FB5 02               [ 8] 3809 	ld	(bc), a
      000FB6 03               [ 8] 3810 	inc	bc
      000FB7 3E 80            [ 8] 3811 	ld	a, #0x80
      000FB9 02               [ 8] 3812 	ld	(bc), a
      000FBA 34               [12] 3813 	inc	(hl)
      000FBB 3E 02            [ 8] 3814 	ld	a, #0x02
      000FBD 96               [ 8] 3815 	sub	a, (hl)
      000FBE 30 C1            [12] 3816 	jr	NC, 00135$
                                   3817 ;gb-dtmf.c:493: for(i = 0;i <= 2;i++){
      000FC0 36 00            [12] 3818 	ld	(hl), #0x00
      000FC2                       3819 00137$:
                                   3820 ;gb-dtmf.c:494: key_y = (i+1) * KEY_STEP + 40;
      000FC2 F8 02            [12] 3821 	ldhl	sp,	#2
      000FC4 3A               [ 8] 3822 	ld	a, (hl-)
      000FC5 2B               [ 8] 3823 	dec	hl
      000FC6 4F               [ 4] 3824 	ld	c, a
      000FC7 3C               [ 4] 3825 	inc	a
      000FC8 5F               [ 4] 3826 	ld	e, a
      000FC9 87               [ 4] 3827 	add	a, a
      000FCA 83               [ 4] 3828 	add	a, e
      000FCB 87               [ 4] 3829 	add	a, a
      000FCC 87               [ 4] 3830 	add	a, a
      000FCD 87               [ 4] 3831 	add	a, a
      000FCE C6 28            [ 8] 3832 	add	a, #0x28
                                   3833 ;gb-dtmf.c:495: set_sprite_tile(i+19, i+19);
      000FD0 22               [ 8] 3834 	ld	(hl+), a
      000FD1 79               [ 4] 3835 	ld	a, c
      000FD2 C6 13            [ 8] 3836 	add	a, #0x13
      000FD4 5F               [ 4] 3837 	ld	e, a
      000FD5 73               [ 8] 3838 	ld	(hl), e
                                   3839 ;../../../include/gb/gb.h:1804: shadow_OAM[nb].tile=tile;
      000FD6 6B               [ 4] 3840 	ld	l, e
                                   3841 ;	spillPairReg hl
                                   3842 ;	spillPairReg hl
      000FD7 26 00            [ 8] 3843 	ld	h, #0x00
                                   3844 ;	spillPairReg hl
                                   3845 ;	spillPairReg hl
      000FD9 29               [ 8] 3846 	add	hl, hl
      000FDA 29               [ 8] 3847 	add	hl, hl
      000FDB 01r00r00         [12] 3848 	ld	bc, #_shadow_OAM
      000FDE 09               [ 8] 3849 	add	hl, bc
      000FDF 23               [ 8] 3850 	inc	hl
      000FE0 23               [ 8] 3851 	inc	hl
      000FE1 4D               [ 4] 3852 	ld	c, l
      000FE2 44               [ 4] 3853 	ld	b, h
      000FE3 F8 01            [12] 3854 	ldhl	sp,	#1
      000FE5 7E               [ 8] 3855 	ld	a, (hl)
      000FE6 02               [ 8] 3856 	ld	(bc), a
                                   3857 ;gb-dtmf.c:496: move_sprite(i+19, key_x, key_y);
                                   3858 ;../../../include/gb/gb.h:1877: OAM_item_t * itm = &shadow_OAM[nb];
      000FE7 01r00r00         [12] 3859 	ld	bc, #_shadow_OAM+0
      000FEA 6B               [ 4] 3860 	ld	l, e
                                   3861 ;	spillPairReg hl
                                   3862 ;	spillPairReg hl
      000FEB 26 00            [ 8] 3863 	ld	h, #0x00
                                   3864 ;	spillPairReg hl
                                   3865 ;	spillPairReg hl
      000FED 29               [ 8] 3866 	add	hl, hl
      000FEE 29               [ 8] 3867 	add	hl, hl
      000FEF 09               [ 8] 3868 	add	hl, bc
      000FF0 4D               [ 4] 3869 	ld	c, l
      000FF1 44               [ 4] 3870 	ld	b, h
                                   3871 ;../../../include/gb/gb.h:1878: itm->y=y, itm->x=x;
      000FF2 F8 00            [12] 3872 	ldhl	sp,	#0
                                   3873 ;gb-dtmf.c:493: for(i = 0;i <= 2;i++){
      000FF4 2A               [ 8] 3874 	ld	a, (hl+)
      000FF5 23               [ 8] 3875 	inc	hl
      000FF6 02               [ 8] 3876 	ld	(bc), a
      000FF7 03               [ 8] 3877 	inc	bc
      000FF8 3E 98            [ 8] 3878 	ld	a, #0x98
      000FFA 02               [ 8] 3879 	ld	(bc), a
      000FFB 34               [12] 3880 	inc	(hl)
      000FFC 3E 02            [ 8] 3881 	ld	a, #0x02
      000FFE 96               [ 8] 3882 	sub	a, (hl)
      000FFF 30 C1            [12] 3883 	jr	NC, 00137$
                                   3884 ;../../../include/gb/gb.h:1804: shadow_OAM[nb].tile=tile;
      001001 21r5Ar00         [12] 3885 	ld	hl, #(_shadow_OAM + 90)
      001004 36 16            [12] 3886 	ld	(hl), #0x16
                                   3887 ;../../../include/gb/gb.h:1877: OAM_item_t * itm = &shadow_OAM[nb];
      001006 21r58r00         [12] 3888 	ld	hl, #(_shadow_OAM + 88)
                                   3889 ;../../../include/gb/gb.h:1878: itm->y=y, itm->x=x;
      001009 3E 88            [ 8] 3890 	ld	a, #0x88
      00100B 22               [ 8] 3891 	ld	(hl+), a
      00100C 36 8C            [12] 3892 	ld	(hl), #0x8c
                                   3893 ;gb-dtmf.c:503: move_sprite(22, key_x, key_y);
                                   3894 ;gb-dtmf.c:504: }
      00100E E8 03            [16] 3895 	add	sp, #3
      001010 C9               [16] 3896 	ret
                                   3897 ;gb-dtmf.c:506: void init_background(void)
                                   3898 ;	---------------------------------
                                   3899 ; Function init_background
                                   3900 ; ---------------------------------
      001011                       3901 _init_background::
                                   3902 ;gb-dtmf.c:509: set_bkg_data( 0, 9, frame_lcd);
      001011 11r28r00         [12] 3903 	ld	de, #_frame_lcd
      001014 D5               [16] 3904 	push	de
      001015 21 00 09         [12] 3905 	ld	hl, #0x900
      001018 E5               [16] 3906 	push	hl
      001019 CDr00r00         [24] 3907 	call	_set_bkg_data
      00101C E8 04            [16] 3908 	add	sp, #4
                                   3909 ;gb-dtmf.c:510: set_bkg_data( 9, 9, break_btn);
      00101E 11rB8r00         [12] 3910 	ld	de, #_break_btn
      001021 D5               [16] 3911 	push	de
      001022 21 09 09         [12] 3912 	ld	hl, #0x909
      001025 E5               [16] 3913 	push	hl
      001026 CDr00r00         [24] 3914 	call	_set_bkg_data
      001029 E8 04            [16] 3915 	add	sp, #4
                                   3916 ;gb-dtmf.c:511: set_bkg_data(18, 9, press_btn);
      00102B 11r48r01         [12] 3917 	ld	de, #_press_btn
      00102E D5               [16] 3918 	push	de
      00102F 21 12 09         [12] 3919 	ld	hl, #0x912
      001032 E5               [16] 3920 	push	hl
      001033 CDr00r00         [24] 3921 	call	_set_bkg_data
      001036 E8 04            [16] 3922 	add	sp, #4
                                   3923 ;gb-dtmf.c:513: set_bkg_tiles(0, 0, 20, 18, dtmf_tile);
      001038 11rF0r06         [12] 3924 	ld	de, #_dtmf_tile
      00103B D5               [16] 3925 	push	de
      00103C 21 14 12         [12] 3926 	ld	hl, #0x1214
      00103F E5               [16] 3927 	push	hl
      001040 AF               [ 4] 3928 	xor	a, a
      001041 0F               [ 4] 3929 	rrca
      001042 F5               [16] 3930 	push	af
      001043 CDr00r00         [24] 3931 	call	_set_bkg_tiles
      001046 E8 06            [16] 3932 	add	sp, #6
                                   3933 ;gb-dtmf.c:514: }
      001048 C9               [16] 3934 	ret
                                   3935 ;gb-dtmf.c:516: void init_cursor(void)
                                   3936 ;	---------------------------------
                                   3937 ; Function init_cursor
                                   3938 ; ---------------------------------
      001049                       3939 _init_cursor::
                                   3940 ;gb-dtmf.c:521: set_sprite_data(23, 8, cursor_data);
      001049 11r68r06         [12] 3941 	ld	de, #_cursor_data
      00104C D5               [16] 3942 	push	de
      00104D 21 17 08         [12] 3943 	ld	hl, #0x817
      001050 E5               [16] 3944 	push	hl
      001051 CDr00r00         [24] 3945 	call	_set_sprite_data
      001054 E8 04            [16] 3946 	add	sp, #4
                                   3947 ;gb-dtmf.c:523: for(i = 23;i <= 30;i++){
      001056 0E 17            [ 8] 3948 	ld	c, #0x17
      001058                       3949 00103$:
                                   3950 ;../../../include/gb/gb.h:1804: shadow_OAM[nb].tile=tile;
      001058 11r00r00         [12] 3951 	ld	de, #_shadow_OAM+0
      00105B 69               [ 4] 3952 	ld	l, c
                                   3953 ;	spillPairReg hl
                                   3954 ;	spillPairReg hl
      00105C 26 00            [ 8] 3955 	ld	h, #0x00
                                   3956 ;	spillPairReg hl
                                   3957 ;	spillPairReg hl
      00105E 29               [ 8] 3958 	add	hl, hl
      00105F 29               [ 8] 3959 	add	hl, hl
      001060 19               [ 8] 3960 	add	hl, de
      001061 23               [ 8] 3961 	inc	hl
      001062 23               [ 8] 3962 	inc	hl
      001063 71               [ 8] 3963 	ld	(hl), c
                                   3964 ;gb-dtmf.c:523: for(i = 23;i <= 30;i++){
      001064 0C               [ 4] 3965 	inc	c
      001065 3E 1E            [ 8] 3966 	ld	a, #0x1e
      001067 91               [ 4] 3967 	sub	a, c
      001068 30 EE            [12] 3968 	jr	NC, 00103$
                                   3969 ;gb-dtmf.c:526: }
      00106A C9               [16] 3970 	ret
                                   3971 ;gb-dtmf.c:528: void move_cursor(uint8_t x, uint8_t y)
                                   3972 ;	---------------------------------
                                   3973 ; Function move_cursor
                                   3974 ; ---------------------------------
      00106B                       3975 _move_cursor::
      00106B 3B               [ 8] 3976 	dec	sp
      00106C 4F               [ 4] 3977 	ld	c, a
                                   3978 ;../../../include/gb/gb.h:1877: OAM_item_t * itm = &shadow_OAM[nb];
      00106D 21r5Cr00         [12] 3979 	ld	hl, #(_shadow_OAM + 92)
                                   3980 ;../../../include/gb/gb.h:1878: itm->y=y, itm->x=x;
      001070 7B               [ 4] 3981 	ld	a, e
      001071 22               [ 8] 3982 	ld	(hl+), a
      001072 71               [ 8] 3983 	ld	(hl), c
                                   3984 ;gb-dtmf.c:531: move_sprite(24, x, y+8);
      001073 7B               [ 4] 3985 	ld	a, e
      001074 C6 08            [ 8] 3986 	add	a, #0x08
      001076 F8 00            [12] 3987 	ldhl	sp,	#0
      001078 77               [ 8] 3988 	ld	(hl), a
                                   3989 ;../../../include/gb/gb.h:1877: OAM_item_t * itm = &shadow_OAM[nb];
                                   3990 ;../../../include/gb/gb.h:1878: itm->y=y, itm->x=x;
      001079 7E               [ 8] 3991 	ld	a, (hl)
      00107A 21r60r00         [12] 3992 	ld	hl, #(_shadow_OAM + 96)
      00107D 22               [ 8] 3993 	ld	(hl+), a
      00107E 71               [ 8] 3994 	ld	(hl), c
                                   3995 ;gb-dtmf.c:532: move_sprite(25, x+8, y);
      00107F 79               [ 4] 3996 	ld	a, c
      001080 C6 08            [ 8] 3997 	add	a, #0x08
      001082 4F               [ 4] 3998 	ld	c, a
      001083 41               [ 4] 3999 	ld	b, c
                                   4000 ;../../../include/gb/gb.h:1877: OAM_item_t * itm = &shadow_OAM[nb];
      001084 21r64r00         [12] 4001 	ld	hl, #(_shadow_OAM + 100)
                                   4002 ;../../../include/gb/gb.h:1878: itm->y=y, itm->x=x;
      001087 7B               [ 4] 4003 	ld	a, e
      001088 22               [ 8] 4004 	ld	(hl+), a
      001089 70               [ 8] 4005 	ld	(hl), b
                                   4006 ;../../../include/gb/gb.h:1877: OAM_item_t * itm = &shadow_OAM[nb];
      00108A 11r68r00         [12] 4007 	ld	de, #_shadow_OAM+104
                                   4008 ;../../../include/gb/gb.h:1878: itm->y=y, itm->x=x;
      00108D F8 00            [12] 4009 	ldhl	sp,	#0
      00108F 7E               [ 8] 4010 	ld	a, (hl)
      001090 12               [ 8] 4011 	ld	(de), a
      001091 13               [ 8] 4012 	inc	de
      001092 79               [ 4] 4013 	ld	a, c
      001093 12               [ 8] 4014 	ld	(de), a
                                   4015 ;gb-dtmf.c:533: move_sprite(26, x+8, y+8);
                                   4016 ;gb-dtmf.c:534: }
      001094 33               [ 8] 4017 	inc	sp
      001095 C9               [16] 4018 	ret
                                   4019 ;gb-dtmf.c:536: void main(void)
                                   4020 ;	---------------------------------
                                   4021 ; Function main
                                   4022 ; ---------------------------------
      001096                       4023 _main::
      001096 E8 C5            [16] 4024 	add	sp, #-59
                                   4025 ;gb-dtmf.c:539: uint8_t non_flick = OFF;
      001098 F8 28            [12] 4026 	ldhl	sp,	#40
                                   4027 ;gb-dtmf.c:546: key2 = 0;
      00109A AF               [ 4] 4028 	xor	a, a
      00109B 22               [ 8] 4029 	ld	(hl+), a
                                   4030 ;gb-dtmf.c:549: on_time = DTMF_ON;
      00109C AF               [ 4] 4031 	xor	a, a
      00109D 22               [ 8] 4032 	ld	(hl+), a
      00109E 3E 64            [ 8] 4033 	ld	a, #0x64
      0010A0 22               [ 8] 4034 	ld	(hl+), a
      0010A1 AF               [ 4] 4035 	xor	a, a
                                   4036 ;gb-dtmf.c:550: off_time = DTMF_OFF;
      0010A2 22               [ 8] 4037 	ld	(hl+), a
      0010A3 3E 64            [ 8] 4038 	ld	a, #0x64
      0010A5 22               [ 8] 4039 	ld	(hl+), a
      0010A6 AF               [ 4] 4040 	xor	a, a
      0010A7 77               [ 8] 4041 	ld	(hl), a
                                   4042 ;../../../include/gb/gb.h:754: __asm__("di");
      0010A8 F3               [ 4] 4043 	di
                                   4044 ;gb-dtmf.c:554: SPRITES_8x8;   /* sprites are 8x8 */
      0010A9 F0r00            [12] 4045 	ldh	a, (_LCDC_REG + 0)
      0010AB E6 FB            [ 8] 4046 	and	a, #0xfb
      0010AD E0r00            [12] 4047 	ldh	(_LCDC_REG + 0), a
                                   4048 ;gb-dtmf.c:556: init_dial();
      0010AF CDr00r00         [24] 4049 	call	_init_dial
                                   4050 ;gb-dtmf.c:558: init_background();
      0010B2 CDr11r10         [24] 4051 	call	_init_background
                                   4052 ;gb-dtmf.c:560: init_key();
      0010B5 CDr92r0E         [24] 4053 	call	_init_key
                                   4054 ;gb-dtmf.c:562: init_cursor();
      0010B8 CDr49r10         [24] 4055 	call	_init_cursor
                                   4056 ;gb-dtmf.c:564: disp(TITLE);
      0010BB 11r69r14         [12] 4057 	ld	de, #___str_0
      0010BE CDrD9r0C         [24] 4058 	call	_disp
                                   4059 ;gb-dtmf.c:566: SHOW_BKG;
      0010C1 F0r00            [12] 4060 	ldh	a, (_LCDC_REG + 0)
      0010C3 F6 01            [ 8] 4061 	or	a, #0x01
      0010C5 E0r00            [12] 4062 	ldh	(_LCDC_REG + 0), a
                                   4063 ;gb-dtmf.c:567: SHOW_SPRITES;
      0010C7 F0r00            [12] 4064 	ldh	a, (_LCDC_REG + 0)
      0010C9 F6 02            [ 8] 4065 	or	a, #0x02
      0010CB E0r00            [12] 4066 	ldh	(_LCDC_REG + 0), a
                                   4067 ;gb-dtmf.c:568: DISPLAY_ON;
      0010CD F0r00            [12] 4068 	ldh	a, (_LCDC_REG + 0)
      0010CF F6 80            [ 8] 4069 	or	a, #0x80
      0010D1 E0r00            [12] 4070 	ldh	(_LCDC_REG + 0), a
                                   4071 ;../../../include/gb/gb.h:738: __asm__("ei");
      0010D3 FB               [ 4] 4072 	ei
                                   4073 ;gb-dtmf.c:572: i = j = 0;
      0010D4 F8 38            [12] 4074 	ldhl	sp,	#56
      0010D6 36 00            [12] 4075 	ld	(hl), #0x00
      0010D8 23               [ 8] 4076 	inc	hl
      0010D9 36 00            [12] 4077 	ld	(hl), #0x00
                                   4078 ;gb-dtmf.c:574: ch_pos = 0;
      0010DB 23               [ 8] 4079 	inc	hl
      0010DC 36 00            [12] 4080 	ld	(hl), #0x00
                                   4081 ;gb-dtmf.c:576: while(1) {
      0010DE                       4082 00187$:
                                   4083 ;gb-dtmf.c:577: vsync();
      0010DE CDr00r00         [24] 4084 	call	_vsync
                                   4085 ;gb-dtmf.c:578: key1 = joypad();
      0010E1 CDr00r00         [24] 4086 	call	_joypad
      0010E4 F8 2E            [12] 4087 	ldhl	sp,	#46
      0010E6 77               [ 8] 4088 	ld	(hl), a
                                   4089 ;gb-dtmf.c:580: if(key1 != key2){
      0010E7 F8 29            [12] 4090 	ldhl	sp,	#41
      0010E9 7E               [ 8] 4091 	ld	a, (hl)
      0010EA F8 2E            [12] 4092 	ldhl	sp,	#46
      0010EC 96               [ 8] 4093 	sub	a, (hl)
      0010ED 28 1D            [12] 4094 	jr	Z, 00102$
                                   4095 ;gb-dtmf.c:581: pos_x = i * KEY_STEP + START_CURSOR_X;
      0010EF F8 39            [12] 4096 	ldhl	sp,	#57
      0010F1 3A               [ 8] 4097 	ld	a, (hl-)
      0010F2 2B               [ 8] 4098 	dec	hl
      0010F3 4F               [ 4] 4099 	ld	c, a
      0010F4 87               [ 4] 4100 	add	a, a
      0010F5 81               [ 4] 4101 	add	a, c
      0010F6 87               [ 4] 4102 	add	a, a
      0010F7 87               [ 4] 4103 	add	a, a
      0010F8 87               [ 4] 4104 	add	a, a
      0010F9 77               [ 8] 4105 	ld	(hl), a
                                   4106 ;gb-dtmf.c:582: pos_y = j * KEY_STEP + START_CURSOR_Y;
      0010FA 2A               [ 8] 4107 	ld	a, (hl+)
      0010FB C6 18            [ 8] 4108 	add	a, #0x18
      0010FD 4F               [ 4] 4109 	ld	c, a
      0010FE 7E               [ 8] 4110 	ld	a, (hl)
      0010FF 5F               [ 4] 4111 	ld	e, a
      001100 87               [ 4] 4112 	add	a, a
      001101 83               [ 4] 4113 	add	a, e
      001102 87               [ 4] 4114 	add	a, a
      001103 87               [ 4] 4115 	add	a, a
      001104 87               [ 4] 4116 	add	a, a
      001105 C6 48            [ 8] 4117 	add	a, #0x48
      001107 5F               [ 4] 4118 	ld	e, a
                                   4119 ;gb-dtmf.c:583: move_cursor(pos_x, pos_y);
      001108 79               [ 4] 4120 	ld	a, c
      001109 CDr6Br10         [24] 4121 	call	_move_cursor
      00110C                       4122 00102$:
                                   4123 ;gb-dtmf.c:587: if(key1 & J_A){
      00110C F8 2E            [12] 4124 	ldhl	sp,	#46
      00110E 2A               [ 8] 4125 	ld	a, (hl+)
      00110F E6 10            [ 8] 4126 	and	a, #0x10
      001111 22               [ 8] 4127 	ld	(hl+), a
      001112 36 00            [12] 4128 	ld	(hl), #0x00
                                   4129 ;gb-dtmf.c:589: if(i <= 3 && j <= 3){
      001114 3E 03            [ 8] 4130 	ld	a, #0x03
      001116 F8 39            [12] 4131 	ldhl	sp,	#57
      001118 96               [ 8] 4132 	sub	a, (hl)
      001119 3E 00            [ 8] 4133 	ld	a, #0x00
      00111B 17               [ 4] 4134 	rla
      00111C F8 31            [12] 4135 	ldhl	sp,	#49
      00111E 77               [ 8] 4136 	ld	(hl), a
      00111F 3E 03            [ 8] 4137 	ld	a, #0x03
      001121 F8 38            [12] 4138 	ldhl	sp,	#56
      001123 96               [ 8] 4139 	sub	a, (hl)
      001124 3E 00            [ 8] 4140 	ld	a, #0x00
      001126 17               [ 4] 4141 	rla
      001127 F8 32            [12] 4142 	ldhl	sp,	#50
      001129 77               [ 8] 4143 	ld	(hl), a
                                   4144 ;gb-dtmf.c:601: if(i == 5 && j == 0 && !non_flick){
      00112A F8 39            [12] 4145 	ldhl	sp,	#57
      00112C 7E               [ 8] 4146 	ld	a, (hl)
      00112D D6 05            [ 8] 4147 	sub	a, #0x05
      00112F 3E 01            [ 8] 4148 	ld	a, #0x01
      001131 28 01            [12] 4149 	jr	Z, 00545$
      001133 AF               [ 4] 4150 	xor	a, a
      001134                       4151 00545$:
      001134 F8 33            [12] 4152 	ldhl	sp,	#51
      001136 77               [ 8] 4153 	ld	(hl), a
                                   4154 ;gb-dtmf.c:609: if(i == 5 && (j == 1 || j == 2) && !non_flick){
      001137 F8 38            [12] 4155 	ldhl	sp,	#56
      001139 7E               [ 8] 4156 	ld	a, (hl)
      00113A 3D               [ 4] 4157 	dec	a
      00113B 3E 01            [ 8] 4158 	ld	a, #0x01
      00113D 28 01            [12] 4159 	jr	Z, 00547$
      00113F AF               [ 4] 4160 	xor	a, a
      001140                       4161 00547$:
      001140 F8 34            [12] 4162 	ldhl	sp,	#52
      001142 77               [ 8] 4163 	ld	(hl), a
      001143 F8 38            [12] 4164 	ldhl	sp,	#56
      001145 7E               [ 8] 4165 	ld	a, (hl)
      001146 D6 02            [ 8] 4166 	sub	a, #0x02
      001148 3E 01            [ 8] 4167 	ld	a, #0x01
      00114A 28 01            [12] 4168 	jr	Z, 00549$
      00114C AF               [ 4] 4169 	xor	a, a
      00114D                       4170 00549$:
      00114D F8 35            [12] 4171 	ldhl	sp,	#53
      00114F 77               [ 8] 4172 	ld	(hl), a
                                   4173 ;gb-dtmf.c:586: if(key2 & J_A){
      001150 E5               [16] 4174 	push	hl
      001151 F8 2B            [12] 4175 	ldhl	sp,	#43
      001153 CB 66            [12] 4176 	bit	4, (hl)
      001155 E1               [12] 4177 	pop	hl
      001156 CAr3Br12         [16] 4178 	jp	Z,00164$
                                   4179 ;gb-dtmf.c:587: if(key1 & J_A){
      001159 AF               [ 4] 4180 	xor	a, a
      00115A F8 2F            [12] 4181 	ldhl	sp,	#47
      00115C B6               [ 8] 4182 	or	a, (hl)
      00115D CArFDr11         [16] 4183 	jp	Z, 00124$
                                   4184 ;gb-dtmf.c:589: if(i <= 3 && j <= 3){
      001160 23               [ 8] 4185 	inc	hl
      001161 23               [ 8] 4186 	inc	hl
      001162 CB 46            [12] 4187 	bit	0, (hl)
      001164 20 3E            [12] 4188 	jr	NZ, 00104$
      001166 23               [ 8] 4189 	inc	hl
      001167 CB 46            [12] 4190 	bit	0, (hl)
      001169 20 39            [12] 4191 	jr	NZ, 00104$
                                   4192 ;gb-dtmf.c:591: NR13_REG = row[i];
      00116B 11rE8r06         [12] 4193 	ld	de, #_row
      00116E F8 39            [12] 4194 	ldhl	sp,	#57
      001170 6E               [ 8] 4195 	ld	l, (hl)
      001171 26 00            [ 8] 4196 	ld	h, #0x00
      001173 19               [ 8] 4197 	add	hl, de
      001174 E5               [16] 4198 	push	hl
      001175 7D               [ 4] 4199 	ld	a, l
      001176 F8 38            [12] 4200 	ldhl	sp,	#56
      001178 77               [ 8] 4201 	ld	(hl), a
      001179 E1               [12] 4202 	pop	hl
      00117A 7C               [ 4] 4203 	ld	a, h
      00117B F8 37            [12] 4204 	ldhl	sp,	#55
      00117D 32               [ 8] 4205 	ld	(hl-), a
      00117E 2A               [ 8] 4206 	ld	a, (hl+)
      00117F 5F               [ 4] 4207 	ld	e, a
                                   4208 ;gb-dtmf.c:592: NR23_REG = col[j];
      001180 2A               [ 8] 4209 	ld	a, (hl+)
      001181 57               [ 4] 4210 	ld	d, a
      001182 1A               [ 8] 4211 	ld	a, (de)
      001183 E0r00            [12] 4212 	ldh	(_NR13_REG + 0), a
      001185 11rECr06         [12] 4213 	ld	de, #_col
      001188 6E               [ 8] 4214 	ld	l, (hl)
      001189 26 00            [ 8] 4215 	ld	h, #0x00
      00118B 19               [ 8] 4216 	add	hl, de
      00118C E5               [16] 4217 	push	hl
      00118D 7D               [ 4] 4218 	ld	a, l
      00118E F8 38            [12] 4219 	ldhl	sp,	#56
      001190 77               [ 8] 4220 	ld	(hl), a
      001191 E1               [12] 4221 	pop	hl
      001192 7C               [ 4] 4222 	ld	a, h
      001193 F8 37            [12] 4223 	ldhl	sp,	#55
      001195 32               [ 8] 4224 	ld	(hl-), a
      001196 2A               [ 8] 4225 	ld	a, (hl+)
      001197 5F               [ 4] 4226 	ld	e, a
      001198 56               [ 8] 4227 	ld	d, (hl)
      001199 1A               [ 8] 4228 	ld	a, (de)
      00119A E0r00            [12] 4229 	ldh	(_NR23_REG + 0), a
                                   4230 ;gb-dtmf.c:593: NR24_REG = 0x87U;
      00119C 3E 87            [ 8] 4231 	ld	a, #0x87
      00119E E0r00            [12] 4232 	ldh	(_NR24_REG + 0), a
                                   4233 ;gb-dtmf.c:596: NR51_REG = 0x33U;
      0011A0 3E 33            [ 8] 4234 	ld	a, #0x33
      0011A2 E0r00            [12] 4235 	ldh	(_NR51_REG + 0), a
      0011A4                       4236 00104$:
                                   4237 ;gb-dtmf.c:601: if(i == 5 && j == 0 && !non_flick){
      0011A4 F8 33            [12] 4238 	ldhl	sp,	#51
      0011A6 7E               [ 8] 4239 	ld	a, (hl)
      0011A7 B7               [ 4] 4240 	or	a, a
      0011A8 28 16            [12] 4241 	jr	Z, 00107$
      0011AA F8 38            [12] 4242 	ldhl	sp,	#56
      0011AC 7E               [ 8] 4243 	ld	a, (hl)
      0011AD B7               [ 4] 4244 	or	a, a
      0011AE 20 10            [12] 4245 	jr	NZ, 00107$
      0011B0 F8 28            [12] 4246 	ldhl	sp,	#40
      0011B2 7E               [ 8] 4247 	ld	a, (hl)
      0011B3 B7               [ 4] 4248 	or	a, a
      0011B4 20 0A            [12] 4249 	jr	NZ, 00107$
                                   4250 ;gb-dtmf.c:602: disp(TITLE);
      0011B6 11r69r14         [12] 4251 	ld	de, #___str_0
      0011B9 CDrD9r0C         [24] 4252 	call	_disp
                                   4253 ;gb-dtmf.c:603: non_flick = ON;
      0011BC F8 28            [12] 4254 	ldhl	sp,	#40
      0011BE 36 01            [12] 4255 	ld	(hl), #0x01
      0011C0                       4256 00107$:
                                   4257 ;gb-dtmf.c:609: if(i == 5 && (j == 1 || j == 2) && !non_flick){
      0011C0 F8 33            [12] 4258 	ldhl	sp,	#51
      0011C2 7E               [ 8] 4259 	ld	a, (hl)
      0011C3 B7               [ 4] 4260 	or	a, a
      0011C4 CArF6r13         [16] 4261 	jp	Z, 00165$
      0011C7 23               [ 8] 4262 	inc	hl
      0011C8 7E               [ 8] 4263 	ld	a, (hl)
      0011C9 B7               [ 4] 4264 	or	a, a
      0011CA 20 06            [12] 4265 	jr	NZ, 00114$
      0011CC 23               [ 8] 4266 	inc	hl
      0011CD 7E               [ 8] 4267 	ld	a, (hl)
      0011CE B7               [ 4] 4268 	or	a, a
      0011CF CArF6r13         [16] 4269 	jp	Z, 00165$
      0011D2                       4270 00114$:
      0011D2 F8 28            [12] 4271 	ldhl	sp,	#40
      0011D4 7E               [ 8] 4272 	ld	a, (hl)
      0011D5 B7               [ 4] 4273 	or	a, a
      0011D6 C2rF6r13         [16] 4274 	jp	NZ, 00165$
                                   4275 ;gb-dtmf.c:610: sprintf(str_ms, "%u MS", on_time);
      0011D9 23               [ 8] 4276 	inc	hl
      0011DA 23               [ 8] 4277 	inc	hl
      0011DB 2A               [ 8] 4278 	ld	a, (hl+)
      0011DC 5F               [ 4] 4279 	ld	e, a
      0011DD 56               [ 8] 4280 	ld	d, (hl)
      0011DE D5               [16] 4281 	push	de
      0011DF 11r7Cr14         [12] 4282 	ld	de, #___str_1
      0011E2 D5               [16] 4283 	push	de
      0011E3 21 22 00         [12] 4284 	ld	hl, #34
      0011E6 39               [ 8] 4285 	add	hl, sp
      0011E7 E5               [16] 4286 	push	hl
      0011E8 CDr00r00         [24] 4287 	call	_sprintf
      0011EB E8 06            [16] 4288 	add	sp, #6
                                   4289 ;gb-dtmf.c:611: disp(str_ms);
      0011ED 21 1E 00         [12] 4290 	ld	hl, #30
      0011F0 39               [ 8] 4291 	add	hl, sp
      0011F1 5D               [ 4] 4292 	ld	e, l
      0011F2 54               [ 4] 4293 	ld	d, h
      0011F3 CDrD9r0C         [24] 4294 	call	_disp
                                   4295 ;gb-dtmf.c:612: non_flick = ON;
      0011F6 F8 28            [12] 4296 	ldhl	sp,	#40
      0011F8 36 01            [12] 4297 	ld	(hl), #0x01
      0011FA C3rF6r13         [16] 4298 	jp	00165$
      0011FD                       4299 00124$:
                                   4300 ;gb-dtmf.c:617: NR51_REG = 0x00U;
      0011FD AF               [ 4] 4301 	xor	a, a
      0011FE E0r00            [12] 4302 	ldh	(_NR51_REG + 0), a
                                   4303 ;gb-dtmf.c:619: break_button(i, j);
      001200 F8 38            [12] 4304 	ldhl	sp,	#56
      001202 2A               [ 8] 4305 	ld	a, (hl+)
      001203 5F               [ 4] 4306 	ld	e, a
      001204 7E               [ 8] 4307 	ld	a, (hl)
      001205 CDr04r0E         [24] 4308 	call	_break_button
                                   4309 ;gb-dtmf.c:625: if(i == 5 && (j == 0 || j == 1 || j == 2)){
      001208 F8 33            [12] 4310 	ldhl	sp,	#51
      00120A 7E               [ 8] 4311 	ld	a, (hl)
      00120B B7               [ 4] 4312 	or	a, a
      00120C CArF6r13         [16] 4313 	jp	Z, 00165$
      00120F F8 38            [12] 4314 	ldhl	sp,	#56
      001211 7E               [ 8] 4315 	ld	a, (hl)
      001212 B7               [ 4] 4316 	or	a, a
      001213 28 0C            [12] 4317 	jr	Z, 00118$
      001215 F8 34            [12] 4318 	ldhl	sp,	#52
      001217 7E               [ 8] 4319 	ld	a, (hl)
      001218 B7               [ 4] 4320 	or	a, a
      001219 20 06            [12] 4321 	jr	NZ, 00118$
      00121B 23               [ 8] 4322 	inc	hl
      00121C 7E               [ 8] 4323 	ld	a, (hl)
      00121D B7               [ 4] 4324 	or	a, a
      00121E CArF6r13         [16] 4325 	jp	Z, 00165$
      001221                       4326 00118$:
                                   4327 ;gb-dtmf.c:626: non_flick = OFF;
      001221 F8 28            [12] 4328 	ldhl	sp,	#40
      001223 36 00            [12] 4329 	ld	(hl), #0x00
                                   4330 ;gb-dtmf.c:627: if(ch_pos == 0)
      001225 F8 3A            [12] 4331 	ldhl	sp,	#58
      001227 7E               [ 8] 4332 	ld	a, (hl)
      001228 B7               [ 4] 4333 	or	a, a
      001229 20 06            [12] 4334 	jr	NZ, 00116$
                                   4335 ;gb-dtmf.c:628: clr_disp();
      00122B CDrBAr0C         [24] 4336 	call	_clr_disp
      00122E C3rF6r13         [16] 4337 	jp	00165$
      001231                       4338 00116$:
                                   4339 ;gb-dtmf.c:630: disp(str);
      001231 F8 00            [12] 4340 	ldhl	sp,	#0
      001233 5D               [ 4] 4341 	ld	e, l
      001234 54               [ 4] 4342 	ld	d, h
      001235 CDrD9r0C         [24] 4343 	call	_disp
      001238 C3rF6r13         [16] 4344 	jp	00165$
      00123B                       4345 00164$:
                                   4346 ;gb-dtmf.c:635: if(key1 & J_A){
      00123B AF               [ 4] 4347 	xor	a, a
      00123C F8 2F            [12] 4348 	ldhl	sp,	#47
      00123E B6               [ 8] 4349 	or	a, (hl)
      00123F CArF6r13         [16] 4350 	jp	Z, 00165$
                                   4351 ;gb-dtmf.c:637: press_button(i, j);
      001242 F8 38            [12] 4352 	ldhl	sp,	#56
      001244 2A               [ 8] 4353 	ld	a, (hl+)
      001245 5F               [ 4] 4354 	ld	e, a
      001246 7E               [ 8] 4355 	ld	a, (hl)
      001247 CDr76r0D         [24] 4356 	call	_press_button
                                   4357 ;gb-dtmf.c:643: str[ch_pos] = pad[j][i];
      00124A F8 38            [12] 4358 	ldhl	sp,	#56
      00124C 4E               [ 8] 4359 	ld	c, (hl)
      00124D 06 00            [ 8] 4360 	ld	b, #0x00
      00124F 69               [ 4] 4361 	ld	l, c
      001250 60               [ 4] 4362 	ld	h, b
      001251 29               [ 8] 4363 	add	hl, hl
      001252 09               [ 8] 4364 	add	hl, bc
      001253 29               [ 8] 4365 	add	hl, hl
      001254 E5               [16] 4366 	push	hl
      001255 7D               [ 4] 4367 	ld	a, l
      001256 F8 38            [12] 4368 	ldhl	sp,	#56
      001258 77               [ 8] 4369 	ld	(hl), a
      001259 E1               [12] 4370 	pop	hl
      00125A 7C               [ 4] 4371 	ld	a, h
      00125B F8 37            [12] 4372 	ldhl	sp,	#55
      00125D 77               [ 8] 4373 	ld	(hl), a
                                   4374 ;gb-dtmf.c:640: if(i <= 3 && j <= 3){
      00125E F8 31            [12] 4375 	ldhl	sp,	#49
      001260 CB 46            [12] 4376 	bit	0, (hl)
      001262 20 4C            [12] 4377 	jr	NZ, 00129$
      001264 23               [ 8] 4378 	inc	hl
      001265 CB 46            [12] 4379 	bit	0, (hl)
      001267 20 47            [12] 4380 	jr	NZ, 00129$
                                   4381 ;gb-dtmf.c:642: if(ch_pos < MAX_DTMF-1){
      001269 F8 3A            [12] 4382 	ldhl	sp,	#58
      00126B 7E               [ 8] 4383 	ld	a, (hl)
      00126C D6 1D            [ 8] 4384 	sub	a, #0x1d
      00126E 30 40            [12] 4385 	jr	NC, 00129$
                                   4386 ;gb-dtmf.c:643: str[ch_pos] = pad[j][i];
      001270 F8 00            [12] 4387 	ldhl	sp,	#0
      001272 4D               [ 4] 4388 	ld	c, l
      001273 44               [ 4] 4389 	ld	b, h
      001274 F8 3A            [12] 4390 	ldhl	sp,	#58
      001276 6E               [ 8] 4391 	ld	l, (hl)
      001277 26 00            [ 8] 4392 	ld	h, #0x00
      001279 09               [ 8] 4393 	add	hl, bc
      00127A E5               [16] 4394 	push	hl
      00127B 7D               [ 4] 4395 	ld	a, l
      00127C F8 33            [12] 4396 	ldhl	sp,	#51
      00127E 77               [ 8] 4397 	ld	(hl), a
      00127F E1               [12] 4398 	pop	hl
      001280 7C               [ 4] 4399 	ld	a, h
      001281 F8 32            [12] 4400 	ldhl	sp,	#50
      001283 77               [ 8] 4401 	ld	(hl), a
      001284 11rB2r08         [12] 4402 	ld	de, #_pad
      001287 F8 36            [12] 4403 	ldhl	sp,	#54
      001289 2A               [ 8] 4404 	ld	a,	(hl+)
      00128A 66               [ 8] 4405 	ld	h, (hl)
      00128B 6F               [ 4] 4406 	ld	l, a
      00128C 19               [ 8] 4407 	add	hl, de
      00128D 5D               [ 4] 4408 	ld	e, l
      00128E 54               [ 4] 4409 	ld	d, h
      00128F F8 39            [12] 4410 	ldhl	sp,	#57
      001291 6E               [ 8] 4411 	ld	l, (hl)
      001292 26 00            [ 8] 4412 	ld	h, #0x00
      001294 19               [ 8] 4413 	add	hl, de
      001295 5D               [ 4] 4414 	ld	e, l
      001296 54               [ 4] 4415 	ld	d, h
      001297 1A               [ 8] 4416 	ld	a, (de)
      001298 F8 31            [12] 4417 	ldhl	sp,	#49
      00129A F5               [16] 4418 	push	af
      00129B 2A               [ 8] 4419 	ld	a,	(hl+)
      00129C 66               [ 8] 4420 	ld	h, (hl)
      00129D 6F               [ 4] 4421 	ld	l, a
      00129E F1               [12] 4422 	pop	af
      00129F 77               [ 8] 4423 	ld	(hl), a
                                   4424 ;gb-dtmf.c:644: ch_pos++;
      0012A0 F8 3A            [12] 4425 	ldhl	sp,	#58
      0012A2 34               [12] 4426 	inc	(hl)
                                   4427 ;gb-dtmf.c:645: str[ch_pos] = 0x00;
      0012A3 6E               [ 8] 4428 	ld	l, (hl)
      0012A4 26 00            [ 8] 4429 	ld	h, #0x00
      0012A6 09               [ 8] 4430 	add	hl, bc
      0012A7 5D               [ 4] 4431 	ld	e, l
      0012A8 54               [ 4] 4432 	ld	d, h
      0012A9 AF               [ 4] 4433 	xor	a, a
      0012AA 12               [ 8] 4434 	ld	(de), a
                                   4435 ;gb-dtmf.c:646: disp(str);
      0012AB 59               [ 4] 4436 	ld	e, c
      0012AC 50               [ 4] 4437 	ld	d, b
      0012AD CDrD9r0C         [24] 4438 	call	_disp
      0012B0                       4439 00129$:
                                   4440 ;gb-dtmf.c:651: if(i == 4 && j == 2){
      0012B0 F8 39            [12] 4441 	ldhl	sp,	#57
      0012B2 7E               [ 8] 4442 	ld	a, (hl)
      0012B3 D6 04            [ 8] 4443 	sub	a, #0x04
      0012B5 3E 01            [ 8] 4444 	ld	a, #0x01
      0012B7 28 01            [12] 4445 	jr	Z, 00552$
      0012B9 AF               [ 4] 4446 	xor	a, a
      0012BA                       4447 00552$:
      0012BA 47               [ 4] 4448 	ld	b, a
      0012BB B7               [ 4] 4449 	or	a, a
      0012BC 28 60            [12] 4450 	jr	Z, 00134$
      0012BE F8 35            [12] 4451 	ldhl	sp,	#53
      0012C0 7E               [ 8] 4452 	ld	a, (hl)
      0012C1 B7               [ 4] 4453 	or	a, a
      0012C2 28 5A            [12] 4454 	jr	Z, 00134$
                                   4455 ;gb-dtmf.c:653: if(ch_pos < MAX_DTMF-1){
      0012C4 F8 3A            [12] 4456 	ldhl	sp,	#58
      0012C6 7E               [ 8] 4457 	ld	a, (hl)
      0012C7 D6 1D            [ 8] 4458 	sub	a, #0x1d
      0012C9 30 53            [12] 4459 	jr	NC, 00134$
                                   4460 ;gb-dtmf.c:654: str[ch_pos] = pad[j][i];
      0012CB E5               [16] 4461 	push	hl
      0012CC 21 02 00         [12] 4462 	ld	hl, #2
      0012CF 39               [ 8] 4463 	add	hl, sp
      0012D0 5D               [ 4] 4464 	ld	e, l
      0012D1 54               [ 4] 4465 	ld	d, h
      0012D2 E1               [12] 4466 	pop	hl
      0012D3 F8 3A            [12] 4467 	ldhl	sp,	#58
      0012D5 6E               [ 8] 4468 	ld	l, (hl)
      0012D6 26 00            [ 8] 4469 	ld	h, #0x00
      0012D8 19               [ 8] 4470 	add	hl, de
      0012D9 E5               [16] 4471 	push	hl
      0012DA 7D               [ 4] 4472 	ld	a, l
      0012DB F8 33            [12] 4473 	ldhl	sp,	#51
      0012DD 77               [ 8] 4474 	ld	(hl), a
      0012DE E1               [12] 4475 	pop	hl
      0012DF 7C               [ 4] 4476 	ld	a, h
      0012E0 F8 32            [12] 4477 	ldhl	sp,	#50
      0012E2 77               [ 8] 4478 	ld	(hl), a
      0012E3 11rB2r08         [12] 4479 	ld	de, #_pad+0
      0012E6 F8 36            [12] 4480 	ldhl	sp,	#54
      0012E8 2A               [ 8] 4481 	ld	a,	(hl+)
      0012E9 66               [ 8] 4482 	ld	h, (hl)
      0012EA 6F               [ 4] 4483 	ld	l, a
      0012EB 19               [ 8] 4484 	add	hl, de
      0012EC 5D               [ 4] 4485 	ld	e, l
      0012ED 54               [ 4] 4486 	ld	d, h
      0012EE F8 39            [12] 4487 	ldhl	sp,	#57
      0012F0 6E               [ 8] 4488 	ld	l, (hl)
      0012F1 26 00            [ 8] 4489 	ld	h, #0x00
      0012F3 19               [ 8] 4490 	add	hl, de
      0012F4 5D               [ 4] 4491 	ld	e, l
      0012F5 54               [ 4] 4492 	ld	d, h
      0012F6 1A               [ 8] 4493 	ld	a, (de)
      0012F7 4F               [ 4] 4494 	ld	c, a
      0012F8 F8 31            [12] 4495 	ldhl	sp,	#49
      0012FA 2A               [ 8] 4496 	ld	a,	(hl+)
      0012FB 66               [ 8] 4497 	ld	h, (hl)
      0012FC 6F               [ 4] 4498 	ld	l, a
      0012FD 71               [ 8] 4499 	ld	(hl), c
                                   4500 ;gb-dtmf.c:655: ch_pos++;
      0012FE F8 3A            [12] 4501 	ldhl	sp,	#58
      001300 34               [12] 4502 	inc	(hl)
                                   4503 ;gb-dtmf.c:656: str[ch_pos] = 0x00;
      001301 E5               [16] 4504 	push	hl
      001302 21 02 00         [12] 4505 	ld	hl, #2
      001305 39               [ 8] 4506 	add	hl, sp
      001306 5D               [ 4] 4507 	ld	e, l
      001307 54               [ 4] 4508 	ld	d, h
      001308 E1               [12] 4509 	pop	hl
      001309 F8 3A            [12] 4510 	ldhl	sp,	#58
      00130B 6E               [ 8] 4511 	ld	l, (hl)
      00130C 26 00            [ 8] 4512 	ld	h, #0x00
      00130E 19               [ 8] 4513 	add	hl, de
      00130F 5D               [ 4] 4514 	ld	e, l
      001310 54               [ 4] 4515 	ld	d, h
      001311 AF               [ 4] 4516 	xor	a, a
      001312 12               [ 8] 4517 	ld	(de), a
                                   4518 ;gb-dtmf.c:657: disp(str);
      001313 C5               [16] 4519 	push	bc
      001314 21 02 00         [12] 4520 	ld	hl, #2
      001317 39               [ 8] 4521 	add	hl, sp
      001318 5D               [ 4] 4522 	ld	e, l
      001319 54               [ 4] 4523 	ld	d, h
      00131A CDrD9r0C         [24] 4524 	call	_disp
      00131D C1               [12] 4525 	pop	bc
      00131E                       4526 00134$:
                                   4527 ;gb-dtmf.c:662: if(i == 4 && j == 0){
      00131E 78               [ 4] 4528 	ld	a, b
      00131F B7               [ 4] 4529 	or	a, a
      001320 28 1D            [12] 4530 	jr	Z, 00137$
      001322 F8 38            [12] 4531 	ldhl	sp,	#56
      001324 7E               [ 8] 4532 	ld	a, (hl)
      001325 B7               [ 4] 4533 	or	a, a
      001326 20 17            [12] 4534 	jr	NZ, 00137$
                                   4535 ;gb-dtmf.c:663: ch_pos = 0x00;
      001328 23               [ 8] 4536 	inc	hl
      001329 23               [ 8] 4537 	inc	hl
      00132A 36 00            [12] 4538 	ld	(hl), #0x00
                                   4539 ;gb-dtmf.c:664: strcpy(str,"");
      00132C F8 00            [12] 4540 	ldhl	sp,	#0
      00132E 5D               [ 4] 4541 	ld	e, l
      00132F 54               [ 4] 4542 	ld	d, h
      001330 21r82r14         [12] 4543 	ld	hl, #___str_2
      001333 E5               [16] 4544 	push	hl
      001334 D5               [16] 4545 	push	de
      001335 CDr00r00         [24] 4546 	call	_strcpy
      001338 E8 04            [16] 4547 	add	sp, #4
                                   4548 ;gb-dtmf.c:665: clr_disp();
      00133A C5               [16] 4549 	push	bc
      00133B CDrBAr0C         [24] 4550 	call	_clr_disp
      00133E C1               [12] 4551 	pop	bc
      00133F                       4552 00137$:
                                   4553 ;gb-dtmf.c:669: if(i == 4 && j == 1){
      00133F 78               [ 4] 4554 	ld	a, b
      001340 B7               [ 4] 4555 	or	a, a
      001341 28 37            [12] 4556 	jr	Z, 00145$
      001343 F8 34            [12] 4557 	ldhl	sp,	#52
      001345 7E               [ 8] 4558 	ld	a, (hl)
      001346 B7               [ 4] 4559 	or	a, a
      001347 28 31            [12] 4560 	jr	Z, 00145$
                                   4561 ;gb-dtmf.c:670: if(ch_pos > 0){
      001349 F8 3A            [12] 4562 	ldhl	sp,	#58
      00134B 7E               [ 8] 4563 	ld	a, (hl)
      00134C B7               [ 4] 4564 	or	a, a
      00134D 28 2B            [12] 4565 	jr	Z, 00145$
                                   4566 ;gb-dtmf.c:671: ch_pos--;
      00134F 35               [12] 4567 	dec	(hl)
                                   4568 ;gb-dtmf.c:672: str[ch_pos] = 0x00;
      001350 E5               [16] 4569 	push	hl
      001351 21 02 00         [12] 4570 	ld	hl, #2
      001354 39               [ 8] 4571 	add	hl, sp
      001355 5D               [ 4] 4572 	ld	e, l
      001356 54               [ 4] 4573 	ld	d, h
      001357 E1               [12] 4574 	pop	hl
      001358 F8 3A            [12] 4575 	ldhl	sp,	#58
      00135A 6E               [ 8] 4576 	ld	l, (hl)
      00135B 26 00            [ 8] 4577 	ld	h, #0x00
      00135D 19               [ 8] 4578 	add	hl, de
      00135E 5D               [ 4] 4579 	ld	e, l
      00135F 54               [ 4] 4580 	ld	d, h
      001360 AF               [ 4] 4581 	xor	a, a
      001361 12               [ 8] 4582 	ld	(de), a
                                   4583 ;gb-dtmf.c:673: if(ch_pos == 0)
      001362 F8 3A            [12] 4584 	ldhl	sp,	#58
      001364 7E               [ 8] 4585 	ld	a, (hl)
      001365 B7               [ 4] 4586 	or	a, a
      001366 20 07            [12] 4587 	jr	NZ, 00140$
                                   4588 ;gb-dtmf.c:674: clr_disp();
      001368 C5               [16] 4589 	push	bc
      001369 CDrBAr0C         [24] 4590 	call	_clr_disp
      00136C C1               [12] 4591 	pop	bc
      00136D 18 0B            [12] 4592 	jr	00145$
      00136F                       4593 00140$:
                                   4594 ;gb-dtmf.c:676: disp(str);
      00136F C5               [16] 4595 	push	bc
      001370 21 02 00         [12] 4596 	ld	hl, #2
      001373 39               [ 8] 4597 	add	hl, sp
      001374 5D               [ 4] 4598 	ld	e, l
      001375 54               [ 4] 4599 	ld	d, h
      001376 CDrD9r0C         [24] 4600 	call	_disp
      001379 C1               [12] 4601 	pop	bc
      00137A                       4602 00145$:
                                   4603 ;gb-dtmf.c:681: if(i == 5 && j == 1){
      00137A F8 33            [12] 4604 	ldhl	sp,	#51
      00137C 7E               [ 8] 4605 	ld	a, (hl)
      00137D B7               [ 4] 4606 	or	a, a
      00137E 28 28            [12] 4607 	jr	Z, 00150$
      001380 23               [ 8] 4608 	inc	hl
      001381 7E               [ 8] 4609 	ld	a, (hl)
      001382 B7               [ 4] 4610 	or	a, a
      001383 28 23            [12] 4611 	jr	Z, 00150$
                                   4612 ;gb-dtmf.c:682: if(on_time >= DTMF_ON / 2){
      001385 F8 2A            [12] 4613 	ldhl	sp,	#42
      001387 2A               [ 8] 4614 	ld	a, (hl+)
      001388 D6 32            [ 8] 4615 	sub	a, #0x32
      00138A 7E               [ 8] 4616 	ld	a, (hl)
      00138B DE 00            [ 8] 4617 	sbc	a, #0x00
      00138D 38 19            [12] 4618 	jr	C, 00150$
                                   4619 ;gb-dtmf.c:683: on_time = on_time - 10;
      00138F 2B               [ 8] 4620 	dec	hl
      001390 2A               [ 8] 4621 	ld	a, (hl+)
      001391 5E               [ 8] 4622 	ld	e, (hl)
      001392 2B               [ 8] 4623 	dec	hl
      001393 C6 F6            [ 8] 4624 	add	a, #0xf6
      001395 4F               [ 4] 4625 	ld	c, a
      001396 7B               [ 4] 4626 	ld	a, e
      001397 CE FF            [ 8] 4627 	adc	a, #0xff
      001399 71               [ 8] 4628 	ld	(hl), c
      00139A 23               [ 8] 4629 	inc	hl
                                   4630 ;gb-dtmf.c:684: off_time = off_time - 10;
      00139B 22               [ 8] 4631 	ld	(hl+), a
      00139C 2A               [ 8] 4632 	ld	a, (hl+)
      00139D 5E               [ 8] 4633 	ld	e, (hl)
      00139E 2B               [ 8] 4634 	dec	hl
      00139F C6 F6            [ 8] 4635 	add	a, #0xf6
      0013A1 4F               [ 4] 4636 	ld	c, a
      0013A2 7B               [ 4] 4637 	ld	a, e
      0013A3 CE FF            [ 8] 4638 	adc	a, #0xff
      0013A5 71               [ 8] 4639 	ld	(hl), c
      0013A6 23               [ 8] 4640 	inc	hl
      0013A7 77               [ 8] 4641 	ld	(hl), a
      0013A8                       4642 00150$:
                                   4643 ;gb-dtmf.c:689: if(i == 5 && j == 2){
      0013A8 F8 33            [12] 4644 	ldhl	sp,	#51
      0013AA 7E               [ 8] 4645 	ld	a, (hl)
      0013AB B7               [ 4] 4646 	or	a, a
      0013AC 28 25            [12] 4647 	jr	Z, 00155$
      0013AE 23               [ 8] 4648 	inc	hl
      0013AF 23               [ 8] 4649 	inc	hl
      0013B0 7E               [ 8] 4650 	ld	a, (hl)
      0013B1 B7               [ 4] 4651 	or	a, a
      0013B2 28 1F            [12] 4652 	jr	Z, 00155$
                                   4653 ;gb-dtmf.c:690: if(on_time <= DTMF_ON * 2){
      0013B4 F8 2A            [12] 4654 	ldhl	sp,	#42
      0013B6 3E C8            [ 8] 4655 	ld	a, #0xc8
      0013B8 96               [ 8] 4656 	sub	a, (hl)
      0013B9 23               [ 8] 4657 	inc	hl
      0013BA 3E 00            [ 8] 4658 	ld	a, #0x00
      0013BC 9E               [ 8] 4659 	sbc	a, (hl)
      0013BD 38 14            [12] 4660 	jr	C, 00155$
                                   4661 ;gb-dtmf.c:691: on_time = on_time + 10;
      0013BF F8 2A            [12] 4662 	ldhl	sp,	#42
      0013C1 7E               [ 8] 4663 	ld	a, (hl)
      0013C2 C6 0A            [ 8] 4664 	add	a, #0x0a
      0013C4 22               [ 8] 4665 	ld	(hl+), a
                                   4666 ;gb-dtmf.c:692: off_time = off_time + 10;
      0013C5 AF               [ 4] 4667 	xor	a, a
      0013C6 22               [ 8] 4668 	ld	(hl+), a
      0013C7 2A               [ 8] 4669 	ld	a, (hl+)
      0013C8 5E               [ 8] 4670 	ld	e, (hl)
      0013C9 2B               [ 8] 4671 	dec	hl
      0013CA C6 0A            [ 8] 4672 	add	a, #0x0a
      0013CC 4F               [ 4] 4673 	ld	c, a
      0013CD 7B               [ 4] 4674 	ld	a, e
      0013CE CE 00            [ 8] 4675 	adc	a, #0x00
      0013D0 71               [ 8] 4676 	ld	(hl), c
      0013D1 23               [ 8] 4677 	inc	hl
      0013D2 77               [ 8] 4678 	ld	(hl), a
      0013D3                       4679 00155$:
                                   4680 ;gb-dtmf.c:697: if((i==4 || i==5) && j==3){
      0013D3 78               [ 4] 4681 	ld	a, b
      0013D4 B7               [ 4] 4682 	or	a, a
      0013D5 20 06            [12] 4683 	jr	NZ, 00160$
      0013D7 F8 33            [12] 4684 	ldhl	sp,	#51
      0013D9 7E               [ 8] 4685 	ld	a, (hl)
      0013DA B7               [ 4] 4686 	or	a, a
      0013DB 28 19            [12] 4687 	jr	Z, 00165$
      0013DD                       4688 00160$:
      0013DD F8 38            [12] 4689 	ldhl	sp,	#56
      0013DF 7E               [ 8] 4690 	ld	a, (hl)
      0013E0 D6 03            [ 8] 4691 	sub	a, #0x03
      0013E2 20 12            [12] 4692 	jr	NZ, 00165$
                                   4693 ;gb-dtmf.c:698: dialtone(on_time, off_time, str);
      0013E4 21 00 00         [12] 4694 	ld	hl, #0
      0013E7 39               [ 8] 4695 	add	hl, sp
      0013E8 E5               [16] 4696 	push	hl
      0013E9 F8 2E            [12] 4697 	ldhl	sp,	#46
      0013EB 2A               [ 8] 4698 	ld	a, (hl+)
      0013EC 4F               [ 4] 4699 	ld	c, a
      0013ED 46               [ 8] 4700 	ld	b, (hl)
      0013EE F8 2C            [12] 4701 	ldhl	sp,	#44
      0013F0 2A               [ 8] 4702 	ld	a, (hl+)
      0013F1 5F               [ 4] 4703 	ld	e, a
      0013F2 56               [ 8] 4704 	ld	d, (hl)
      0013F3 CDrCAr08         [24] 4705 	call	_dialtone
      0013F6                       4706 00165$:
                                   4707 ;gb-dtmf.c:702: if(!(key1 & J_A)){
      0013F6 AF               [ 4] 4708 	xor	a, a
      0013F7 F8 2F            [12] 4709 	ldhl	sp,	#47
      0013F9 B6               [ 8] 4710 	or	a, (hl)
      0013FA 20 61            [12] 4711 	jr	NZ, 00185$
                                   4712 ;gb-dtmf.c:703: if((key1 & J_UP) && !(key2 & J_UP) && j > 0)
      0013FC E5               [16] 4713 	push	hl
      0013FD 2B               [ 8] 4714 	dec	hl
      0013FE CB 56            [12] 4715 	bit	2, (hl)
      001400 E1               [12] 4716 	pop	hl
      001401 28 11            [12] 4717 	jr	Z, 00171$
      001403 E5               [16] 4718 	push	hl
      001404 F8 2B            [12] 4719 	ldhl	sp,	#43
      001406 CB 56            [12] 4720 	bit	2, (hl)
      001408 E1               [12] 4721 	pop	hl
      001409 20 09            [12] 4722 	jr	NZ, 00171$
      00140B F8 38            [12] 4723 	ldhl	sp,	#56
      00140D 7E               [ 8] 4724 	ld	a, (hl)
      00140E B7               [ 4] 4725 	or	a, a
      00140F 28 03            [12] 4726 	jr	Z, 00171$
                                   4727 ;gb-dtmf.c:704: j--;
      001411 35               [12] 4728 	dec	(hl)
      001412 18 18            [12] 4729 	jr	00172$
      001414                       4730 00171$:
                                   4731 ;gb-dtmf.c:705: else if((key1 & J_DOWN) && !(key2 & J_DOWN) && j < 3)
      001414 E5               [16] 4732 	push	hl
      001415 F8 30            [12] 4733 	ldhl	sp,	#48
      001417 CB 5E            [12] 4734 	bit	3, (hl)
      001419 E1               [12] 4735 	pop	hl
      00141A 28 10            [12] 4736 	jr	Z, 00172$
      00141C E5               [16] 4737 	push	hl
      00141D F8 2B            [12] 4738 	ldhl	sp,	#43
      00141F CB 5E            [12] 4739 	bit	3, (hl)
      001421 E1               [12] 4740 	pop	hl
      001422 20 08            [12] 4741 	jr	NZ, 00172$
      001424 F8 38            [12] 4742 	ldhl	sp,	#56
      001426 7E               [ 8] 4743 	ld	a, (hl)
      001427 D6 03            [ 8] 4744 	sub	a, #0x03
      001429 30 01            [12] 4745 	jr	NC, 00172$
                                   4746 ;gb-dtmf.c:706: j++;
      00142B 34               [12] 4747 	inc	(hl)
      00142C                       4748 00172$:
                                   4749 ;gb-dtmf.c:708: if((key1 & J_LEFT) && !(key2 & J_LEFT) && i > 0)
      00142C E5               [16] 4750 	push	hl
      00142D F8 30            [12] 4751 	ldhl	sp,	#48
      00142F CB 4E            [12] 4752 	bit	1, (hl)
      001431 E1               [12] 4753 	pop	hl
      001432 28 11            [12] 4754 	jr	Z, 00180$
      001434 E5               [16] 4755 	push	hl
      001435 F8 2B            [12] 4756 	ldhl	sp,	#43
      001437 CB 4E            [12] 4757 	bit	1, (hl)
      001439 E1               [12] 4758 	pop	hl
      00143A 20 09            [12] 4759 	jr	NZ, 00180$
      00143C F8 39            [12] 4760 	ldhl	sp,	#57
      00143E 7E               [ 8] 4761 	ld	a, (hl)
      00143F B7               [ 4] 4762 	or	a, a
      001440 28 03            [12] 4763 	jr	Z, 00180$
                                   4764 ;gb-dtmf.c:709: i--;
      001442 35               [12] 4765 	dec	(hl)
      001443 18 18            [12] 4766 	jr	00185$
      001445                       4767 00180$:
                                   4768 ;gb-dtmf.c:710: else if((key1 & J_RIGHT) && !(key2 & J_RIGHT) && i < 5)
      001445 E5               [16] 4769 	push	hl
      001446 F8 30            [12] 4770 	ldhl	sp,	#48
      001448 CB 46            [12] 4771 	bit	0, (hl)
      00144A E1               [12] 4772 	pop	hl
      00144B 28 10            [12] 4773 	jr	Z, 00185$
      00144D E5               [16] 4774 	push	hl
      00144E F8 2B            [12] 4775 	ldhl	sp,	#43
      001450 CB 46            [12] 4776 	bit	0, (hl)
      001452 E1               [12] 4777 	pop	hl
      001453 20 08            [12] 4778 	jr	NZ, 00185$
      001455 F8 39            [12] 4779 	ldhl	sp,	#57
      001457 7E               [ 8] 4780 	ld	a, (hl)
      001458 D6 05            [ 8] 4781 	sub	a, #0x05
      00145A 30 01            [12] 4782 	jr	NC, 00185$
                                   4783 ;gb-dtmf.c:711: i++;
      00145C 34               [12] 4784 	inc	(hl)
      00145D                       4785 00185$:
                                   4786 ;gb-dtmf.c:713: key2 = key1;
      00145D F8 2E            [12] 4787 	ldhl	sp,	#46
      00145F 7E               [ 8] 4788 	ld	a, (hl)
      001460 F8 29            [12] 4789 	ldhl	sp,	#41
      001462 77               [ 8] 4790 	ld	(hl), a
      001463 C3rDEr10         [16] 4791 	jp	00187$
                                   4792 ;gb-dtmf.c:715: }
      001466 E8 3B            [16] 4793 	add	sp, #59
      001468 C9               [16] 4794 	ret
      001469                       4795 ___str_0:
      001469 20 47 42 2D 44 54 4D  4796 	.ascii " GB-DTMF BY 05AMU "
             46 20 42 59 20 30 35
             41 4D 55 20
      00147B 00                    4797 	.db 0x00
      00147C                       4798 ___str_1:
      00147C 25 75 20 4D 53        4799 	.ascii "%u MS"
      001481 00                    4800 	.db 0x00
      001482                       4801 ___str_2:
      001482 00                    4802 	.db 0x00
                                   4803 	.area _CODE
                                   4804 	.area _INITIALIZER
                                   4805 	.area _CABS (ABS)
